
kernel/kernel:     file format elf64-littleriscv


Disassembly of section .text:

0000000080000000 <_entry>:
    80000000:	0000a117          	auipc	sp,0xa
    80000004:	d8010113          	addi	sp,sp,-640 # 80009d80 <stack0>
    80000008:	6505                	lui	a0,0x1
    8000000a:	f14025f3          	csrr	a1,mhartid
    8000000e:	0585                	addi	a1,a1,1
    80000010:	02b50533          	mul	a0,a0,a1
    80000014:	912a                	add	sp,sp,a0
    80000016:	078000ef          	jal	ra,8000008e <start>

000000008000001a <spin>:
    8000001a:	a001                	j	8000001a <spin>

000000008000001c <timerinit>:
// at timervec in kernelvec.S,
// which turns them into software interrupts for
// devintr() in trap.c.
void
timerinit()
{
    8000001c:	1141                	addi	sp,sp,-16
    8000001e:	e422                	sd	s0,8(sp)
    80000020:	0800                	addi	s0,sp,16
// which hart (core) is this?
static inline uint64
r_mhartid()
{
  uint64 x;
  asm volatile("csrr %0, mhartid" : "=r" (x) );
    80000022:	f14027f3          	csrr	a5,mhartid
  // each CPU has a separate source of timer interrupts.
  int id = r_mhartid();
    80000026:	0007869b          	sext.w	a3,a5

  // ask the CLINT for a timer interrupt.
  int interval = 1000000; // cycles; about 1/10th second in qemu.
  *(uint64*)CLINT_MTIMECMP(id) = *(uint64*)CLINT_MTIME + interval;
    8000002a:	0037979b          	slliw	a5,a5,0x3
    8000002e:	02004737          	lui	a4,0x2004
    80000032:	97ba                	add	a5,a5,a4
    80000034:	0200c737          	lui	a4,0x200c
    80000038:	ff873583          	ld	a1,-8(a4) # 200bff8 <_entry-0x7dff4008>
    8000003c:	000f4637          	lui	a2,0xf4
    80000040:	24060613          	addi	a2,a2,576 # f4240 <_entry-0x7ff0bdc0>
    80000044:	95b2                	add	a1,a1,a2
    80000046:	e38c                	sd	a1,0(a5)

  // prepare information in scratch[] for timervec.
  // scratch[0..2] : space for timervec to save registers.
  // scratch[3] : address of CLINT MTIMECMP register.
  // scratch[4] : desired interval (in cycles) between timer interrupts.
  uint64 *scratch = &timer_scratch[id][0];
    80000048:	00269713          	slli	a4,a3,0x2
    8000004c:	9736                	add	a4,a4,a3
    8000004e:	00371693          	slli	a3,a4,0x3
    80000052:	0000a717          	auipc	a4,0xa
    80000056:	bee70713          	addi	a4,a4,-1042 # 80009c40 <timer_scratch>
    8000005a:	9736                	add	a4,a4,a3
  scratch[3] = CLINT_MTIMECMP(id);
    8000005c:	ef1c                	sd	a5,24(a4)
  scratch[4] = interval;
    8000005e:	f310                	sd	a2,32(a4)
}

static inline void 
w_mscratch(uint64 x)
{
  asm volatile("csrw mscratch, %0" : : "r" (x));
    80000060:	34071073          	csrw	mscratch,a4
  asm volatile("csrw mtvec, %0" : : "r" (x));
    80000064:	00007797          	auipc	a5,0x7
    80000068:	c8c78793          	addi	a5,a5,-884 # 80006cf0 <timervec>
    8000006c:	30579073          	csrw	mtvec,a5
  asm volatile("csrr %0, mstatus" : "=r" (x) );
    80000070:	300027f3          	csrr	a5,mstatus

  // set the machine-mode trap handler.
  w_mtvec((uint64)timervec);

  // enable machine-mode interrupts.
  w_mstatus(r_mstatus() | MSTATUS_MIE);
    80000074:	0087e793          	ori	a5,a5,8
  asm volatile("csrw mstatus, %0" : : "r" (x));
    80000078:	30079073          	csrw	mstatus,a5
  asm volatile("csrr %0, mie" : "=r" (x) );
    8000007c:	304027f3          	csrr	a5,mie

  // enable machine-mode timer interrupts.
  w_mie(r_mie() | MIE_MTIE);
    80000080:	0807e793          	ori	a5,a5,128
  asm volatile("csrw mie, %0" : : "r" (x));
    80000084:	30479073          	csrw	mie,a5
}
    80000088:	6422                	ld	s0,8(sp)
    8000008a:	0141                	addi	sp,sp,16
    8000008c:	8082                	ret

000000008000008e <start>:
{
    8000008e:	1141                	addi	sp,sp,-16
    80000090:	e406                	sd	ra,8(sp)
    80000092:	e022                	sd	s0,0(sp)
    80000094:	0800                	addi	s0,sp,16
  asm volatile("csrr %0, mstatus" : "=r" (x) );
    80000096:	300027f3          	csrr	a5,mstatus
  x &= ~MSTATUS_MPP_MASK;
    8000009a:	7779                	lui	a4,0xffffe
    8000009c:	7ff70713          	addi	a4,a4,2047 # ffffffffffffe7ff <end+0xffffffff7fdb7497>
    800000a0:	8ff9                	and	a5,a5,a4
  x |= MSTATUS_MPP_S;
    800000a2:	6705                	lui	a4,0x1
    800000a4:	80070713          	addi	a4,a4,-2048 # 800 <_entry-0x7ffff800>
    800000a8:	8fd9                	or	a5,a5,a4
  asm volatile("csrw mstatus, %0" : : "r" (x));
    800000aa:	30079073          	csrw	mstatus,a5
  asm volatile("csrw mepc, %0" : : "r" (x));
    800000ae:	00001797          	auipc	a5,0x1
    800000b2:	01278793          	addi	a5,a5,18 # 800010c0 <main>
    800000b6:	34179073          	csrw	mepc,a5
  asm volatile("csrw satp, %0" : : "r" (x));
    800000ba:	4781                	li	a5,0
    800000bc:	18079073          	csrw	satp,a5
  asm volatile("csrw medeleg, %0" : : "r" (x));
    800000c0:	67c1                	lui	a5,0x10
    800000c2:	17fd                	addi	a5,a5,-1
    800000c4:	30279073          	csrw	medeleg,a5
  asm volatile("csrw mideleg, %0" : : "r" (x));
    800000c8:	30379073          	csrw	mideleg,a5
  asm volatile("csrr %0, sie" : "=r" (x) );
    800000cc:	104027f3          	csrr	a5,sie
  w_sie(r_sie() | SIE_SEIE | SIE_STIE | SIE_SSIE);
    800000d0:	2227e793          	ori	a5,a5,546
  asm volatile("csrw sie, %0" : : "r" (x));
    800000d4:	10479073          	csrw	sie,a5
  asm volatile("csrw pmpaddr0, %0" : : "r" (x));
    800000d8:	57fd                	li	a5,-1
    800000da:	83a9                	srli	a5,a5,0xa
    800000dc:	3b079073          	csrw	pmpaddr0,a5
  asm volatile("csrw pmpcfg0, %0" : : "r" (x));
    800000e0:	47bd                	li	a5,15
    800000e2:	3a079073          	csrw	pmpcfg0,a5
  timerinit();
    800000e6:	00000097          	auipc	ra,0x0
    800000ea:	f36080e7          	jalr	-202(ra) # 8000001c <timerinit>
  asm volatile("csrr %0, mhartid" : "=r" (x) );
    800000ee:	f14027f3          	csrr	a5,mhartid
  w_tp(id);
    800000f2:	2781                	sext.w	a5,a5
}

static inline void 
w_tp(uint64 x)
{
  asm volatile("mv tp, %0" : : "r" (x));
    800000f4:	823e                	mv	tp,a5
  asm volatile("mret");
    800000f6:	30200073          	mret
}
    800000fa:	60a2                	ld	ra,8(sp)
    800000fc:	6402                	ld	s0,0(sp)
    800000fe:	0141                	addi	sp,sp,16
    80000100:	8082                	ret

0000000080000102 <consolewrite>:
//
// user write()s to the console go here.
//
int
consolewrite(int user_src, uint64 src, int n)
{
    80000102:	715d                	addi	sp,sp,-80
    80000104:	e486                	sd	ra,72(sp)
    80000106:	e0a2                	sd	s0,64(sp)
    80000108:	fc26                	sd	s1,56(sp)
    8000010a:	f84a                	sd	s2,48(sp)
    8000010c:	f44e                	sd	s3,40(sp)
    8000010e:	f052                	sd	s4,32(sp)
    80000110:	ec56                	sd	s5,24(sp)
    80000112:	0880                	addi	s0,sp,80
  int i;

  for(i = 0; i < n; i++){
    80000114:	04c05663          	blez	a2,80000160 <consolewrite+0x5e>
    80000118:	8a2a                	mv	s4,a0
    8000011a:	84ae                	mv	s1,a1
    8000011c:	89b2                	mv	s3,a2
    8000011e:	4901                	li	s2,0
    char c;
    if(either_copyin(&c, user_src, src+i, 1) == -1)
    80000120:	5afd                	li	s5,-1
    80000122:	4685                	li	a3,1
    80000124:	8626                	mv	a2,s1
    80000126:	85d2                	mv	a1,s4
    80000128:	fbf40513          	addi	a0,s0,-65
    8000012c:	00003097          	auipc	ra,0x3
    80000130:	052080e7          	jalr	82(ra) # 8000317e <either_copyin>
    80000134:	01550c63          	beq	a0,s5,8000014c <consolewrite+0x4a>
      break;
    uartputc(c);
    80000138:	fbf44503          	lbu	a0,-65(s0)
    8000013c:	00000097          	auipc	ra,0x0
    80000140:	794080e7          	jalr	1940(ra) # 800008d0 <uartputc>
  for(i = 0; i < n; i++){
    80000144:	2905                	addiw	s2,s2,1
    80000146:	0485                	addi	s1,s1,1
    80000148:	fd299de3          	bne	s3,s2,80000122 <consolewrite+0x20>
  }

  return i;
}
    8000014c:	854a                	mv	a0,s2
    8000014e:	60a6                	ld	ra,72(sp)
    80000150:	6406                	ld	s0,64(sp)
    80000152:	74e2                	ld	s1,56(sp)
    80000154:	7942                	ld	s2,48(sp)
    80000156:	79a2                	ld	s3,40(sp)
    80000158:	7a02                	ld	s4,32(sp)
    8000015a:	6ae2                	ld	s5,24(sp)
    8000015c:	6161                	addi	sp,sp,80
    8000015e:	8082                	ret
  for(i = 0; i < n; i++){
    80000160:	4901                	li	s2,0
    80000162:	b7ed                	j	8000014c <consolewrite+0x4a>

0000000080000164 <consoleread>:
// user_dist indicates whether dst is a user
// or kernel address.
//
int
consoleread(int user_dst, uint64 dst, int n)
{
    80000164:	7119                	addi	sp,sp,-128
    80000166:	fc86                	sd	ra,120(sp)
    80000168:	f8a2                	sd	s0,112(sp)
    8000016a:	f4a6                	sd	s1,104(sp)
    8000016c:	f0ca                	sd	s2,96(sp)
    8000016e:	ecce                	sd	s3,88(sp)
    80000170:	e8d2                	sd	s4,80(sp)
    80000172:	e4d6                	sd	s5,72(sp)
    80000174:	e0da                	sd	s6,64(sp)
    80000176:	fc5e                	sd	s7,56(sp)
    80000178:	f862                	sd	s8,48(sp)
    8000017a:	f466                	sd	s9,40(sp)
    8000017c:	f06a                	sd	s10,32(sp)
    8000017e:	ec6e                	sd	s11,24(sp)
    80000180:	0100                	addi	s0,sp,128
    80000182:	8b2a                	mv	s6,a0
    80000184:	8aae                	mv	s5,a1
    80000186:	8a32                	mv	s4,a2
  uint target;
  int c;
  char cbuf;

  target = n;
    80000188:	00060b9b          	sext.w	s7,a2
  acquire(&cons.lock);
    8000018c:	00012517          	auipc	a0,0x12
    80000190:	bf450513          	addi	a0,a0,-1036 # 80011d80 <cons>
    80000194:	00001097          	auipc	ra,0x1
    80000198:	c82080e7          	jalr	-894(ra) # 80000e16 <acquire>
  while(n > 0){
    // wait until interrupt handler has put some
    // input into cons.buffer.
    while(cons.r == cons.w){
    8000019c:	00012497          	auipc	s1,0x12
    800001a0:	be448493          	addi	s1,s1,-1052 # 80011d80 <cons>
      if(killed(myproc())){
        release(&cons.lock);
        return -1;
      }
      sleep(&cons.r, &cons.lock);
    800001a4:	89a6                	mv	s3,s1
    800001a6:	00012917          	auipc	s2,0x12
    800001aa:	c7290913          	addi	s2,s2,-910 # 80011e18 <cons+0x98>
    }

    c = cons.buf[cons.r++ % INPUT_BUF_SIZE];

    if(c == C('D')){  // end-of-file
    800001ae:	4c91                	li	s9,4
      break;
    }

    // copy the input byte to the user-space buffer.
    cbuf = c;
    if(either_copyout(user_dst, dst, &cbuf, 1) == -1)
    800001b0:	5d7d                	li	s10,-1
      break;

    dst++;
    --n;

    if(c == '\n'){
    800001b2:	4da9                	li	s11,10
  while(n > 0){
    800001b4:	07405b63          	blez	s4,8000022a <consoleread+0xc6>
    while(cons.r == cons.w){
    800001b8:	0984a783          	lw	a5,152(s1)
    800001bc:	09c4a703          	lw	a4,156(s1)
    800001c0:	02f71763          	bne	a4,a5,800001ee <consoleread+0x8a>
      if(killed(myproc())){
    800001c4:	00002097          	auipc	ra,0x2
    800001c8:	c3e080e7          	jalr	-962(ra) # 80001e02 <myproc>
    800001cc:	00003097          	auipc	ra,0x3
    800001d0:	f2a080e7          	jalr	-214(ra) # 800030f6 <killed>
    800001d4:	e535                	bnez	a0,80000240 <consoleread+0xdc>
      sleep(&cons.r, &cons.lock);
    800001d6:	85ce                	mv	a1,s3
    800001d8:	854a                	mv	a0,s2
    800001da:	00003097          	auipc	ra,0x3
    800001de:	96a080e7          	jalr	-1686(ra) # 80002b44 <sleep>
    while(cons.r == cons.w){
    800001e2:	0984a783          	lw	a5,152(s1)
    800001e6:	09c4a703          	lw	a4,156(s1)
    800001ea:	fcf70de3          	beq	a4,a5,800001c4 <consoleread+0x60>
    c = cons.buf[cons.r++ % INPUT_BUF_SIZE];
    800001ee:	0017871b          	addiw	a4,a5,1
    800001f2:	08e4ac23          	sw	a4,152(s1)
    800001f6:	07f7f713          	andi	a4,a5,127
    800001fa:	9726                	add	a4,a4,s1
    800001fc:	01874703          	lbu	a4,24(a4)
    80000200:	00070c1b          	sext.w	s8,a4
    if(c == C('D')){  // end-of-file
    80000204:	079c0663          	beq	s8,s9,80000270 <consoleread+0x10c>
    cbuf = c;
    80000208:	f8e407a3          	sb	a4,-113(s0)
    if(either_copyout(user_dst, dst, &cbuf, 1) == -1)
    8000020c:	4685                	li	a3,1
    8000020e:	f8f40613          	addi	a2,s0,-113
    80000212:	85d6                	mv	a1,s5
    80000214:	855a                	mv	a0,s6
    80000216:	00003097          	auipc	ra,0x3
    8000021a:	f12080e7          	jalr	-238(ra) # 80003128 <either_copyout>
    8000021e:	01a50663          	beq	a0,s10,8000022a <consoleread+0xc6>
    dst++;
    80000222:	0a85                	addi	s5,s5,1
    --n;
    80000224:	3a7d                	addiw	s4,s4,-1
    if(c == '\n'){
    80000226:	f9bc17e3          	bne	s8,s11,800001b4 <consoleread+0x50>
      // a whole line has arrived, return to
      // the user-level read().
      break;
    }
  }
  release(&cons.lock);
    8000022a:	00012517          	auipc	a0,0x12
    8000022e:	b5650513          	addi	a0,a0,-1194 # 80011d80 <cons>
    80000232:	00001097          	auipc	ra,0x1
    80000236:	c98080e7          	jalr	-872(ra) # 80000eca <release>

  return target - n;
    8000023a:	414b853b          	subw	a0,s7,s4
    8000023e:	a811                	j	80000252 <consoleread+0xee>
        release(&cons.lock);
    80000240:	00012517          	auipc	a0,0x12
    80000244:	b4050513          	addi	a0,a0,-1216 # 80011d80 <cons>
    80000248:	00001097          	auipc	ra,0x1
    8000024c:	c82080e7          	jalr	-894(ra) # 80000eca <release>
        return -1;
    80000250:	557d                	li	a0,-1
}
    80000252:	70e6                	ld	ra,120(sp)
    80000254:	7446                	ld	s0,112(sp)
    80000256:	74a6                	ld	s1,104(sp)
    80000258:	7906                	ld	s2,96(sp)
    8000025a:	69e6                	ld	s3,88(sp)
    8000025c:	6a46                	ld	s4,80(sp)
    8000025e:	6aa6                	ld	s5,72(sp)
    80000260:	6b06                	ld	s6,64(sp)
    80000262:	7be2                	ld	s7,56(sp)
    80000264:	7c42                	ld	s8,48(sp)
    80000266:	7ca2                	ld	s9,40(sp)
    80000268:	7d02                	ld	s10,32(sp)
    8000026a:	6de2                	ld	s11,24(sp)
    8000026c:	6109                	addi	sp,sp,128
    8000026e:	8082                	ret
      if(n < target){
    80000270:	000a071b          	sext.w	a4,s4
    80000274:	fb777be3          	bgeu	a4,s7,8000022a <consoleread+0xc6>
        cons.r--;
    80000278:	00012717          	auipc	a4,0x12
    8000027c:	baf72023          	sw	a5,-1120(a4) # 80011e18 <cons+0x98>
    80000280:	b76d                	j	8000022a <consoleread+0xc6>

0000000080000282 <consputc>:
{
    80000282:	1141                	addi	sp,sp,-16
    80000284:	e406                	sd	ra,8(sp)
    80000286:	e022                	sd	s0,0(sp)
    80000288:	0800                	addi	s0,sp,16
  if(c == BACKSPACE){
    8000028a:	10000793          	li	a5,256
    8000028e:	00f50a63          	beq	a0,a5,800002a2 <consputc+0x20>
    uartputc_sync(c);
    80000292:	00000097          	auipc	ra,0x0
    80000296:	564080e7          	jalr	1380(ra) # 800007f6 <uartputc_sync>
}
    8000029a:	60a2                	ld	ra,8(sp)
    8000029c:	6402                	ld	s0,0(sp)
    8000029e:	0141                	addi	sp,sp,16
    800002a0:	8082                	ret
    uartputc_sync('\b'); uartputc_sync(' '); uartputc_sync('\b');
    800002a2:	4521                	li	a0,8
    800002a4:	00000097          	auipc	ra,0x0
    800002a8:	552080e7          	jalr	1362(ra) # 800007f6 <uartputc_sync>
    800002ac:	02000513          	li	a0,32
    800002b0:	00000097          	auipc	ra,0x0
    800002b4:	546080e7          	jalr	1350(ra) # 800007f6 <uartputc_sync>
    800002b8:	4521                	li	a0,8
    800002ba:	00000097          	auipc	ra,0x0
    800002be:	53c080e7          	jalr	1340(ra) # 800007f6 <uartputc_sync>
    800002c2:	bfe1                	j	8000029a <consputc+0x18>

00000000800002c4 <consoleintr>:
// do erase/kill processing, append to cons.buf,
// wake up consoleread() if a whole line has arrived.
//
void
consoleintr(int c)
{
    800002c4:	1101                	addi	sp,sp,-32
    800002c6:	ec06                	sd	ra,24(sp)
    800002c8:	e822                	sd	s0,16(sp)
    800002ca:	e426                	sd	s1,8(sp)
    800002cc:	e04a                	sd	s2,0(sp)
    800002ce:	1000                	addi	s0,sp,32
    800002d0:	84aa                	mv	s1,a0
  acquire(&cons.lock);
    800002d2:	00012517          	auipc	a0,0x12
    800002d6:	aae50513          	addi	a0,a0,-1362 # 80011d80 <cons>
    800002da:	00001097          	auipc	ra,0x1
    800002de:	b3c080e7          	jalr	-1220(ra) # 80000e16 <acquire>

  switch(c){
    800002e2:	47d5                	li	a5,21
    800002e4:	0af48663          	beq	s1,a5,80000390 <consoleintr+0xcc>
    800002e8:	0297ca63          	blt	a5,s1,8000031c <consoleintr+0x58>
    800002ec:	47a1                	li	a5,8
    800002ee:	0ef48763          	beq	s1,a5,800003dc <consoleintr+0x118>
    800002f2:	47c1                	li	a5,16
    800002f4:	10f49a63          	bne	s1,a5,80000408 <consoleintr+0x144>
  case C('P'):  // Print process list.
    procdump();
    800002f8:	00003097          	auipc	ra,0x3
    800002fc:	edc080e7          	jalr	-292(ra) # 800031d4 <procdump>
      }
    }
    break;
  }
  
  release(&cons.lock);
    80000300:	00012517          	auipc	a0,0x12
    80000304:	a8050513          	addi	a0,a0,-1408 # 80011d80 <cons>
    80000308:	00001097          	auipc	ra,0x1
    8000030c:	bc2080e7          	jalr	-1086(ra) # 80000eca <release>
}
    80000310:	60e2                	ld	ra,24(sp)
    80000312:	6442                	ld	s0,16(sp)
    80000314:	64a2                	ld	s1,8(sp)
    80000316:	6902                	ld	s2,0(sp)
    80000318:	6105                	addi	sp,sp,32
    8000031a:	8082                	ret
  switch(c){
    8000031c:	07f00793          	li	a5,127
    80000320:	0af48e63          	beq	s1,a5,800003dc <consoleintr+0x118>
    if(c != 0 && cons.e-cons.r < INPUT_BUF_SIZE){
    80000324:	00012717          	auipc	a4,0x12
    80000328:	a5c70713          	addi	a4,a4,-1444 # 80011d80 <cons>
    8000032c:	0a072783          	lw	a5,160(a4)
    80000330:	09872703          	lw	a4,152(a4)
    80000334:	9f99                	subw	a5,a5,a4
    80000336:	07f00713          	li	a4,127
    8000033a:	fcf763e3          	bltu	a4,a5,80000300 <consoleintr+0x3c>
      c = (c == '\r') ? '\n' : c;
    8000033e:	47b5                	li	a5,13
    80000340:	0cf48763          	beq	s1,a5,8000040e <consoleintr+0x14a>
      consputc(c);
    80000344:	8526                	mv	a0,s1
    80000346:	00000097          	auipc	ra,0x0
    8000034a:	f3c080e7          	jalr	-196(ra) # 80000282 <consputc>
      cons.buf[cons.e++ % INPUT_BUF_SIZE] = c;
    8000034e:	00012797          	auipc	a5,0x12
    80000352:	a3278793          	addi	a5,a5,-1486 # 80011d80 <cons>
    80000356:	0a07a683          	lw	a3,160(a5)
    8000035a:	0016871b          	addiw	a4,a3,1
    8000035e:	0007061b          	sext.w	a2,a4
    80000362:	0ae7a023          	sw	a4,160(a5)
    80000366:	07f6f693          	andi	a3,a3,127
    8000036a:	97b6                	add	a5,a5,a3
    8000036c:	00978c23          	sb	s1,24(a5)
      if(c == '\n' || c == C('D') || cons.e-cons.r == INPUT_BUF_SIZE){
    80000370:	47a9                	li	a5,10
    80000372:	0cf48563          	beq	s1,a5,8000043c <consoleintr+0x178>
    80000376:	4791                	li	a5,4
    80000378:	0cf48263          	beq	s1,a5,8000043c <consoleintr+0x178>
    8000037c:	00012797          	auipc	a5,0x12
    80000380:	a9c7a783          	lw	a5,-1380(a5) # 80011e18 <cons+0x98>
    80000384:	9f1d                	subw	a4,a4,a5
    80000386:	08000793          	li	a5,128
    8000038a:	f6f71be3          	bne	a4,a5,80000300 <consoleintr+0x3c>
    8000038e:	a07d                	j	8000043c <consoleintr+0x178>
    while(cons.e != cons.w &&
    80000390:	00012717          	auipc	a4,0x12
    80000394:	9f070713          	addi	a4,a4,-1552 # 80011d80 <cons>
    80000398:	0a072783          	lw	a5,160(a4)
    8000039c:	09c72703          	lw	a4,156(a4)
          cons.buf[(cons.e-1) % INPUT_BUF_SIZE] != '\n'){
    800003a0:	00012497          	auipc	s1,0x12
    800003a4:	9e048493          	addi	s1,s1,-1568 # 80011d80 <cons>
    while(cons.e != cons.w &&
    800003a8:	4929                	li	s2,10
    800003aa:	f4f70be3          	beq	a4,a5,80000300 <consoleintr+0x3c>
          cons.buf[(cons.e-1) % INPUT_BUF_SIZE] != '\n'){
    800003ae:	37fd                	addiw	a5,a5,-1
    800003b0:	07f7f713          	andi	a4,a5,127
    800003b4:	9726                	add	a4,a4,s1
    while(cons.e != cons.w &&
    800003b6:	01874703          	lbu	a4,24(a4)
    800003ba:	f52703e3          	beq	a4,s2,80000300 <consoleintr+0x3c>
      cons.e--;
    800003be:	0af4a023          	sw	a5,160(s1)
      consputc(BACKSPACE);
    800003c2:	10000513          	li	a0,256
    800003c6:	00000097          	auipc	ra,0x0
    800003ca:	ebc080e7          	jalr	-324(ra) # 80000282 <consputc>
    while(cons.e != cons.w &&
    800003ce:	0a04a783          	lw	a5,160(s1)
    800003d2:	09c4a703          	lw	a4,156(s1)
    800003d6:	fcf71ce3          	bne	a4,a5,800003ae <consoleintr+0xea>
    800003da:	b71d                	j	80000300 <consoleintr+0x3c>
    if(cons.e != cons.w){
    800003dc:	00012717          	auipc	a4,0x12
    800003e0:	9a470713          	addi	a4,a4,-1628 # 80011d80 <cons>
    800003e4:	0a072783          	lw	a5,160(a4)
    800003e8:	09c72703          	lw	a4,156(a4)
    800003ec:	f0f70ae3          	beq	a4,a5,80000300 <consoleintr+0x3c>
      cons.e--;
    800003f0:	37fd                	addiw	a5,a5,-1
    800003f2:	00012717          	auipc	a4,0x12
    800003f6:	a2f72723          	sw	a5,-1490(a4) # 80011e20 <cons+0xa0>
      consputc(BACKSPACE);
    800003fa:	10000513          	li	a0,256
    800003fe:	00000097          	auipc	ra,0x0
    80000402:	e84080e7          	jalr	-380(ra) # 80000282 <consputc>
    80000406:	bded                	j	80000300 <consoleintr+0x3c>
    if(c != 0 && cons.e-cons.r < INPUT_BUF_SIZE){
    80000408:	ee048ce3          	beqz	s1,80000300 <consoleintr+0x3c>
    8000040c:	bf21                	j	80000324 <consoleintr+0x60>
      consputc(c);
    8000040e:	4529                	li	a0,10
    80000410:	00000097          	auipc	ra,0x0
    80000414:	e72080e7          	jalr	-398(ra) # 80000282 <consputc>
      cons.buf[cons.e++ % INPUT_BUF_SIZE] = c;
    80000418:	00012797          	auipc	a5,0x12
    8000041c:	96878793          	addi	a5,a5,-1688 # 80011d80 <cons>
    80000420:	0a07a703          	lw	a4,160(a5)
    80000424:	0017069b          	addiw	a3,a4,1
    80000428:	0006861b          	sext.w	a2,a3
    8000042c:	0ad7a023          	sw	a3,160(a5)
    80000430:	07f77713          	andi	a4,a4,127
    80000434:	97ba                	add	a5,a5,a4
    80000436:	4729                	li	a4,10
    80000438:	00e78c23          	sb	a4,24(a5)
        cons.w = cons.e;
    8000043c:	00012797          	auipc	a5,0x12
    80000440:	9ec7a023          	sw	a2,-1568(a5) # 80011e1c <cons+0x9c>
        wakeup(&cons.r);
    80000444:	00012517          	auipc	a0,0x12
    80000448:	9d450513          	addi	a0,a0,-1580 # 80011e18 <cons+0x98>
    8000044c:	00003097          	auipc	ra,0x3
    80000450:	9d4080e7          	jalr	-1580(ra) # 80002e20 <wakeup>
    80000454:	b575                	j	80000300 <consoleintr+0x3c>

0000000080000456 <consoleinit>:

void
consoleinit(void)
{
    80000456:	1141                	addi	sp,sp,-16
    80000458:	e406                	sd	ra,8(sp)
    8000045a:	e022                	sd	s0,0(sp)
    8000045c:	0800                	addi	s0,sp,16
  initlock(&cons.lock, "cons");
    8000045e:	00009597          	auipc	a1,0x9
    80000462:	bb258593          	addi	a1,a1,-1102 # 80009010 <etext+0x10>
    80000466:	00012517          	auipc	a0,0x12
    8000046a:	91a50513          	addi	a0,a0,-1766 # 80011d80 <cons>
    8000046e:	00001097          	auipc	ra,0x1
    80000472:	918080e7          	jalr	-1768(ra) # 80000d86 <initlock>

  uartinit();
    80000476:	00000097          	auipc	ra,0x0
    8000047a:	330080e7          	jalr	816(ra) # 800007a6 <uartinit>

  // connect read and write system calls
  // to consoleread and consolewrite.
  devsw[CONSOLE].read = consoleread;
    8000047e:	00246797          	auipc	a5,0x246
    80000482:	d5278793          	addi	a5,a5,-686 # 802461d0 <devsw>
    80000486:	00000717          	auipc	a4,0x0
    8000048a:	cde70713          	addi	a4,a4,-802 # 80000164 <consoleread>
    8000048e:	eb98                	sd	a4,16(a5)
  devsw[CONSOLE].write = consolewrite;
    80000490:	00000717          	auipc	a4,0x0
    80000494:	c7270713          	addi	a4,a4,-910 # 80000102 <consolewrite>
    80000498:	ef98                	sd	a4,24(a5)
}
    8000049a:	60a2                	ld	ra,8(sp)
    8000049c:	6402                	ld	s0,0(sp)
    8000049e:	0141                	addi	sp,sp,16
    800004a0:	8082                	ret

00000000800004a2 <printint>:

static char digits[] = "0123456789abcdef";

static void
printint(int xx, int base, int sign)
{
    800004a2:	7179                	addi	sp,sp,-48
    800004a4:	f406                	sd	ra,40(sp)
    800004a6:	f022                	sd	s0,32(sp)
    800004a8:	ec26                	sd	s1,24(sp)
    800004aa:	e84a                	sd	s2,16(sp)
    800004ac:	1800                	addi	s0,sp,48
  char buf[16];
  int i;
  uint x;

  if(sign && (sign = xx < 0))
    800004ae:	c219                	beqz	a2,800004b4 <printint+0x12>
    800004b0:	08054663          	bltz	a0,8000053c <printint+0x9a>
    x = -xx;
  else
    x = xx;
    800004b4:	2501                	sext.w	a0,a0
    800004b6:	4881                	li	a7,0
    800004b8:	fd040693          	addi	a3,s0,-48

  i = 0;
    800004bc:	4701                	li	a4,0
  do {
    buf[i++] = digits[x % base];
    800004be:	2581                	sext.w	a1,a1
    800004c0:	00009617          	auipc	a2,0x9
    800004c4:	b8060613          	addi	a2,a2,-1152 # 80009040 <digits>
    800004c8:	883a                	mv	a6,a4
    800004ca:	2705                	addiw	a4,a4,1
    800004cc:	02b577bb          	remuw	a5,a0,a1
    800004d0:	1782                	slli	a5,a5,0x20
    800004d2:	9381                	srli	a5,a5,0x20
    800004d4:	97b2                	add	a5,a5,a2
    800004d6:	0007c783          	lbu	a5,0(a5)
    800004da:	00f68023          	sb	a5,0(a3)
  } while((x /= base) != 0);
    800004de:	0005079b          	sext.w	a5,a0
    800004e2:	02b5553b          	divuw	a0,a0,a1
    800004e6:	0685                	addi	a3,a3,1
    800004e8:	feb7f0e3          	bgeu	a5,a1,800004c8 <printint+0x26>

  if(sign)
    800004ec:	00088b63          	beqz	a7,80000502 <printint+0x60>
    buf[i++] = '-';
    800004f0:	fe040793          	addi	a5,s0,-32
    800004f4:	973e                	add	a4,a4,a5
    800004f6:	02d00793          	li	a5,45
    800004fa:	fef70823          	sb	a5,-16(a4)
    800004fe:	0028071b          	addiw	a4,a6,2

  while(--i >= 0)
    80000502:	02e05763          	blez	a4,80000530 <printint+0x8e>
    80000506:	fd040793          	addi	a5,s0,-48
    8000050a:	00e784b3          	add	s1,a5,a4
    8000050e:	fff78913          	addi	s2,a5,-1
    80000512:	993a                	add	s2,s2,a4
    80000514:	377d                	addiw	a4,a4,-1
    80000516:	1702                	slli	a4,a4,0x20
    80000518:	9301                	srli	a4,a4,0x20
    8000051a:	40e90933          	sub	s2,s2,a4
    consputc(buf[i]);
    8000051e:	fff4c503          	lbu	a0,-1(s1)
    80000522:	00000097          	auipc	ra,0x0
    80000526:	d60080e7          	jalr	-672(ra) # 80000282 <consputc>
  while(--i >= 0)
    8000052a:	14fd                	addi	s1,s1,-1
    8000052c:	ff2499e3          	bne	s1,s2,8000051e <printint+0x7c>
}
    80000530:	70a2                	ld	ra,40(sp)
    80000532:	7402                	ld	s0,32(sp)
    80000534:	64e2                	ld	s1,24(sp)
    80000536:	6942                	ld	s2,16(sp)
    80000538:	6145                	addi	sp,sp,48
    8000053a:	8082                	ret
    x = -xx;
    8000053c:	40a0053b          	negw	a0,a0
  if(sign && (sign = xx < 0))
    80000540:	4885                	li	a7,1
    x = -xx;
    80000542:	bf9d                	j	800004b8 <printint+0x16>

0000000080000544 <panic>:
    release(&pr.lock);
}

void
panic(char *s)
{
    80000544:	1101                	addi	sp,sp,-32
    80000546:	ec06                	sd	ra,24(sp)
    80000548:	e822                	sd	s0,16(sp)
    8000054a:	e426                	sd	s1,8(sp)
    8000054c:	1000                	addi	s0,sp,32
    8000054e:	84aa                	mv	s1,a0
  pr.locking = 0;
    80000550:	00012797          	auipc	a5,0x12
    80000554:	8e07a823          	sw	zero,-1808(a5) # 80011e40 <pr+0x18>
  printf("panic: ");
    80000558:	00009517          	auipc	a0,0x9
    8000055c:	ac050513          	addi	a0,a0,-1344 # 80009018 <etext+0x18>
    80000560:	00000097          	auipc	ra,0x0
    80000564:	02e080e7          	jalr	46(ra) # 8000058e <printf>
  printf(s);
    80000568:	8526                	mv	a0,s1
    8000056a:	00000097          	auipc	ra,0x0
    8000056e:	024080e7          	jalr	36(ra) # 8000058e <printf>
  printf("\n");
    80000572:	00009517          	auipc	a0,0x9
    80000576:	d9650513          	addi	a0,a0,-618 # 80009308 <digits+0x2c8>
    8000057a:	00000097          	auipc	ra,0x0
    8000057e:	014080e7          	jalr	20(ra) # 8000058e <printf>
  panicked = 1; // freeze uart output from other CPUs
    80000582:	4785                	li	a5,1
    80000584:	00009717          	auipc	a4,0x9
    80000588:	66f72e23          	sw	a5,1660(a4) # 80009c00 <panicked>
  for(;;)
    8000058c:	a001                	j	8000058c <panic+0x48>

000000008000058e <printf>:
{
    8000058e:	7131                	addi	sp,sp,-192
    80000590:	fc86                	sd	ra,120(sp)
    80000592:	f8a2                	sd	s0,112(sp)
    80000594:	f4a6                	sd	s1,104(sp)
    80000596:	f0ca                	sd	s2,96(sp)
    80000598:	ecce                	sd	s3,88(sp)
    8000059a:	e8d2                	sd	s4,80(sp)
    8000059c:	e4d6                	sd	s5,72(sp)
    8000059e:	e0da                	sd	s6,64(sp)
    800005a0:	fc5e                	sd	s7,56(sp)
    800005a2:	f862                	sd	s8,48(sp)
    800005a4:	f466                	sd	s9,40(sp)
    800005a6:	f06a                	sd	s10,32(sp)
    800005a8:	ec6e                	sd	s11,24(sp)
    800005aa:	0100                	addi	s0,sp,128
    800005ac:	8a2a                	mv	s4,a0
    800005ae:	e40c                	sd	a1,8(s0)
    800005b0:	e810                	sd	a2,16(s0)
    800005b2:	ec14                	sd	a3,24(s0)
    800005b4:	f018                	sd	a4,32(s0)
    800005b6:	f41c                	sd	a5,40(s0)
    800005b8:	03043823          	sd	a6,48(s0)
    800005bc:	03143c23          	sd	a7,56(s0)
  locking = pr.locking;
    800005c0:	00012d97          	auipc	s11,0x12
    800005c4:	880dad83          	lw	s11,-1920(s11) # 80011e40 <pr+0x18>
  if(locking)
    800005c8:	020d9b63          	bnez	s11,800005fe <printf+0x70>
  if (fmt == 0)
    800005cc:	040a0263          	beqz	s4,80000610 <printf+0x82>
  va_start(ap, fmt);
    800005d0:	00840793          	addi	a5,s0,8
    800005d4:	f8f43423          	sd	a5,-120(s0)
  for(i = 0; (c = fmt[i] & 0xff) != 0; i++){
    800005d8:	000a4503          	lbu	a0,0(s4)
    800005dc:	16050263          	beqz	a0,80000740 <printf+0x1b2>
    800005e0:	4481                	li	s1,0
    if(c != '%'){
    800005e2:	02500a93          	li	s5,37
    switch(c){
    800005e6:	07000b13          	li	s6,112
  consputc('x');
    800005ea:	4d41                	li	s10,16
    consputc(digits[x >> (sizeof(uint64) * 8 - 4)]);
    800005ec:	00009b97          	auipc	s7,0x9
    800005f0:	a54b8b93          	addi	s7,s7,-1452 # 80009040 <digits>
    switch(c){
    800005f4:	07300c93          	li	s9,115
    800005f8:	06400c13          	li	s8,100
    800005fc:	a82d                	j	80000636 <printf+0xa8>
    acquire(&pr.lock);
    800005fe:	00012517          	auipc	a0,0x12
    80000602:	82a50513          	addi	a0,a0,-2006 # 80011e28 <pr>
    80000606:	00001097          	auipc	ra,0x1
    8000060a:	810080e7          	jalr	-2032(ra) # 80000e16 <acquire>
    8000060e:	bf7d                	j	800005cc <printf+0x3e>
    panic("null fmt");
    80000610:	00009517          	auipc	a0,0x9
    80000614:	a1850513          	addi	a0,a0,-1512 # 80009028 <etext+0x28>
    80000618:	00000097          	auipc	ra,0x0
    8000061c:	f2c080e7          	jalr	-212(ra) # 80000544 <panic>
      consputc(c);
    80000620:	00000097          	auipc	ra,0x0
    80000624:	c62080e7          	jalr	-926(ra) # 80000282 <consputc>
  for(i = 0; (c = fmt[i] & 0xff) != 0; i++){
    80000628:	2485                	addiw	s1,s1,1
    8000062a:	009a07b3          	add	a5,s4,s1
    8000062e:	0007c503          	lbu	a0,0(a5)
    80000632:	10050763          	beqz	a0,80000740 <printf+0x1b2>
    if(c != '%'){
    80000636:	ff5515e3          	bne	a0,s5,80000620 <printf+0x92>
    c = fmt[++i] & 0xff;
    8000063a:	2485                	addiw	s1,s1,1
    8000063c:	009a07b3          	add	a5,s4,s1
    80000640:	0007c783          	lbu	a5,0(a5)
    80000644:	0007891b          	sext.w	s2,a5
    if(c == 0)
    80000648:	cfe5                	beqz	a5,80000740 <printf+0x1b2>
    switch(c){
    8000064a:	05678a63          	beq	a5,s6,8000069e <printf+0x110>
    8000064e:	02fb7663          	bgeu	s6,a5,8000067a <printf+0xec>
    80000652:	09978963          	beq	a5,s9,800006e4 <printf+0x156>
    80000656:	07800713          	li	a4,120
    8000065a:	0ce79863          	bne	a5,a4,8000072a <printf+0x19c>
      printint(va_arg(ap, int), 16, 1);
    8000065e:	f8843783          	ld	a5,-120(s0)
    80000662:	00878713          	addi	a4,a5,8
    80000666:	f8e43423          	sd	a4,-120(s0)
    8000066a:	4605                	li	a2,1
    8000066c:	85ea                	mv	a1,s10
    8000066e:	4388                	lw	a0,0(a5)
    80000670:	00000097          	auipc	ra,0x0
    80000674:	e32080e7          	jalr	-462(ra) # 800004a2 <printint>
      break;
    80000678:	bf45                	j	80000628 <printf+0x9a>
    switch(c){
    8000067a:	0b578263          	beq	a5,s5,8000071e <printf+0x190>
    8000067e:	0b879663          	bne	a5,s8,8000072a <printf+0x19c>
      printint(va_arg(ap, int), 10, 1);
    80000682:	f8843783          	ld	a5,-120(s0)
    80000686:	00878713          	addi	a4,a5,8
    8000068a:	f8e43423          	sd	a4,-120(s0)
    8000068e:	4605                	li	a2,1
    80000690:	45a9                	li	a1,10
    80000692:	4388                	lw	a0,0(a5)
    80000694:	00000097          	auipc	ra,0x0
    80000698:	e0e080e7          	jalr	-498(ra) # 800004a2 <printint>
      break;
    8000069c:	b771                	j	80000628 <printf+0x9a>
      printptr(va_arg(ap, uint64));
    8000069e:	f8843783          	ld	a5,-120(s0)
    800006a2:	00878713          	addi	a4,a5,8
    800006a6:	f8e43423          	sd	a4,-120(s0)
    800006aa:	0007b983          	ld	s3,0(a5)
  consputc('0');
    800006ae:	03000513          	li	a0,48
    800006b2:	00000097          	auipc	ra,0x0
    800006b6:	bd0080e7          	jalr	-1072(ra) # 80000282 <consputc>
  consputc('x');
    800006ba:	07800513          	li	a0,120
    800006be:	00000097          	auipc	ra,0x0
    800006c2:	bc4080e7          	jalr	-1084(ra) # 80000282 <consputc>
    800006c6:	896a                	mv	s2,s10
    consputc(digits[x >> (sizeof(uint64) * 8 - 4)]);
    800006c8:	03c9d793          	srli	a5,s3,0x3c
    800006cc:	97de                	add	a5,a5,s7
    800006ce:	0007c503          	lbu	a0,0(a5)
    800006d2:	00000097          	auipc	ra,0x0
    800006d6:	bb0080e7          	jalr	-1104(ra) # 80000282 <consputc>
  for (i = 0; i < (sizeof(uint64) * 2); i++, x <<= 4)
    800006da:	0992                	slli	s3,s3,0x4
    800006dc:	397d                	addiw	s2,s2,-1
    800006de:	fe0915e3          	bnez	s2,800006c8 <printf+0x13a>
    800006e2:	b799                	j	80000628 <printf+0x9a>
      if((s = va_arg(ap, char*)) == 0)
    800006e4:	f8843783          	ld	a5,-120(s0)
    800006e8:	00878713          	addi	a4,a5,8
    800006ec:	f8e43423          	sd	a4,-120(s0)
    800006f0:	0007b903          	ld	s2,0(a5)
    800006f4:	00090e63          	beqz	s2,80000710 <printf+0x182>
      for(; *s; s++)
    800006f8:	00094503          	lbu	a0,0(s2)
    800006fc:	d515                	beqz	a0,80000628 <printf+0x9a>
        consputc(*s);
    800006fe:	00000097          	auipc	ra,0x0
    80000702:	b84080e7          	jalr	-1148(ra) # 80000282 <consputc>
      for(; *s; s++)
    80000706:	0905                	addi	s2,s2,1
    80000708:	00094503          	lbu	a0,0(s2)
    8000070c:	f96d                	bnez	a0,800006fe <printf+0x170>
    8000070e:	bf29                	j	80000628 <printf+0x9a>
        s = "(null)";
    80000710:	00009917          	auipc	s2,0x9
    80000714:	91090913          	addi	s2,s2,-1776 # 80009020 <etext+0x20>
      for(; *s; s++)
    80000718:	02800513          	li	a0,40
    8000071c:	b7cd                	j	800006fe <printf+0x170>
      consputc('%');
    8000071e:	8556                	mv	a0,s5
    80000720:	00000097          	auipc	ra,0x0
    80000724:	b62080e7          	jalr	-1182(ra) # 80000282 <consputc>
      break;
    80000728:	b701                	j	80000628 <printf+0x9a>
      consputc('%');
    8000072a:	8556                	mv	a0,s5
    8000072c:	00000097          	auipc	ra,0x0
    80000730:	b56080e7          	jalr	-1194(ra) # 80000282 <consputc>
      consputc(c);
    80000734:	854a                	mv	a0,s2
    80000736:	00000097          	auipc	ra,0x0
    8000073a:	b4c080e7          	jalr	-1204(ra) # 80000282 <consputc>
      break;
    8000073e:	b5ed                	j	80000628 <printf+0x9a>
  if(locking)
    80000740:	020d9163          	bnez	s11,80000762 <printf+0x1d4>
}
    80000744:	70e6                	ld	ra,120(sp)
    80000746:	7446                	ld	s0,112(sp)
    80000748:	74a6                	ld	s1,104(sp)
    8000074a:	7906                	ld	s2,96(sp)
    8000074c:	69e6                	ld	s3,88(sp)
    8000074e:	6a46                	ld	s4,80(sp)
    80000750:	6aa6                	ld	s5,72(sp)
    80000752:	6b06                	ld	s6,64(sp)
    80000754:	7be2                	ld	s7,56(sp)
    80000756:	7c42                	ld	s8,48(sp)
    80000758:	7ca2                	ld	s9,40(sp)
    8000075a:	7d02                	ld	s10,32(sp)
    8000075c:	6de2                	ld	s11,24(sp)
    8000075e:	6129                	addi	sp,sp,192
    80000760:	8082                	ret
    release(&pr.lock);
    80000762:	00011517          	auipc	a0,0x11
    80000766:	6c650513          	addi	a0,a0,1734 # 80011e28 <pr>
    8000076a:	00000097          	auipc	ra,0x0
    8000076e:	760080e7          	jalr	1888(ra) # 80000eca <release>
}
    80000772:	bfc9                	j	80000744 <printf+0x1b6>

0000000080000774 <printfinit>:
    ;
}

void
printfinit(void)
{
    80000774:	1101                	addi	sp,sp,-32
    80000776:	ec06                	sd	ra,24(sp)
    80000778:	e822                	sd	s0,16(sp)
    8000077a:	e426                	sd	s1,8(sp)
    8000077c:	1000                	addi	s0,sp,32
  initlock(&pr.lock, "pr");
    8000077e:	00011497          	auipc	s1,0x11
    80000782:	6aa48493          	addi	s1,s1,1706 # 80011e28 <pr>
    80000786:	00009597          	auipc	a1,0x9
    8000078a:	8b258593          	addi	a1,a1,-1870 # 80009038 <etext+0x38>
    8000078e:	8526                	mv	a0,s1
    80000790:	00000097          	auipc	ra,0x0
    80000794:	5f6080e7          	jalr	1526(ra) # 80000d86 <initlock>
  pr.locking = 1;
    80000798:	4785                	li	a5,1
    8000079a:	cc9c                	sw	a5,24(s1)
}
    8000079c:	60e2                	ld	ra,24(sp)
    8000079e:	6442                	ld	s0,16(sp)
    800007a0:	64a2                	ld	s1,8(sp)
    800007a2:	6105                	addi	sp,sp,32
    800007a4:	8082                	ret

00000000800007a6 <uartinit>:

void uartstart();

void
uartinit(void)
{
    800007a6:	1141                	addi	sp,sp,-16
    800007a8:	e406                	sd	ra,8(sp)
    800007aa:	e022                	sd	s0,0(sp)
    800007ac:	0800                	addi	s0,sp,16
  // disable interrupts.
  WriteReg(IER, 0x00);
    800007ae:	100007b7          	lui	a5,0x10000
    800007b2:	000780a3          	sb	zero,1(a5) # 10000001 <_entry-0x6fffffff>

  // special mode to set baud rate.
  WriteReg(LCR, LCR_BAUD_LATCH);
    800007b6:	f8000713          	li	a4,-128
    800007ba:	00e781a3          	sb	a4,3(a5)

  // LSB for baud rate of 38.4K.
  WriteReg(0, 0x03);
    800007be:	470d                	li	a4,3
    800007c0:	00e78023          	sb	a4,0(a5)

  // MSB for baud rate of 38.4K.
  WriteReg(1, 0x00);
    800007c4:	000780a3          	sb	zero,1(a5)

  // leave set-baud mode,
  // and set word length to 8 bits, no parity.
  WriteReg(LCR, LCR_EIGHT_BITS);
    800007c8:	00e781a3          	sb	a4,3(a5)

  // reset and enable FIFOs.
  WriteReg(FCR, FCR_FIFO_ENABLE | FCR_FIFO_CLEAR);
    800007cc:	469d                	li	a3,7
    800007ce:	00d78123          	sb	a3,2(a5)

  // enable transmit and receive interrupts.
  WriteReg(IER, IER_TX_ENABLE | IER_RX_ENABLE);
    800007d2:	00e780a3          	sb	a4,1(a5)

  initlock(&uart_tx_lock, "uart");
    800007d6:	00009597          	auipc	a1,0x9
    800007da:	88258593          	addi	a1,a1,-1918 # 80009058 <digits+0x18>
    800007de:	00011517          	auipc	a0,0x11
    800007e2:	66a50513          	addi	a0,a0,1642 # 80011e48 <uart_tx_lock>
    800007e6:	00000097          	auipc	ra,0x0
    800007ea:	5a0080e7          	jalr	1440(ra) # 80000d86 <initlock>
}
    800007ee:	60a2                	ld	ra,8(sp)
    800007f0:	6402                	ld	s0,0(sp)
    800007f2:	0141                	addi	sp,sp,16
    800007f4:	8082                	ret

00000000800007f6 <uartputc_sync>:
// use interrupts, for use by kernel printf() and
// to echo characters. it spins waiting for the uart's
// output register to be empty.
void
uartputc_sync(int c)
{
    800007f6:	1101                	addi	sp,sp,-32
    800007f8:	ec06                	sd	ra,24(sp)
    800007fa:	e822                	sd	s0,16(sp)
    800007fc:	e426                	sd	s1,8(sp)
    800007fe:	1000                	addi	s0,sp,32
    80000800:	84aa                	mv	s1,a0
  push_off();
    80000802:	00000097          	auipc	ra,0x0
    80000806:	5c8080e7          	jalr	1480(ra) # 80000dca <push_off>

  if(panicked){
    8000080a:	00009797          	auipc	a5,0x9
    8000080e:	3f67a783          	lw	a5,1014(a5) # 80009c00 <panicked>
    for(;;)
      ;
  }

  // wait for Transmit Holding Empty to be set in LSR.
  while((ReadReg(LSR) & LSR_TX_IDLE) == 0)
    80000812:	10000737          	lui	a4,0x10000
  if(panicked){
    80000816:	c391                	beqz	a5,8000081a <uartputc_sync+0x24>
    for(;;)
    80000818:	a001                	j	80000818 <uartputc_sync+0x22>
  while((ReadReg(LSR) & LSR_TX_IDLE) == 0)
    8000081a:	00574783          	lbu	a5,5(a4) # 10000005 <_entry-0x6ffffffb>
    8000081e:	0ff7f793          	andi	a5,a5,255
    80000822:	0207f793          	andi	a5,a5,32
    80000826:	dbf5                	beqz	a5,8000081a <uartputc_sync+0x24>
    ;
  WriteReg(THR, c);
    80000828:	0ff4f793          	andi	a5,s1,255
    8000082c:	10000737          	lui	a4,0x10000
    80000830:	00f70023          	sb	a5,0(a4) # 10000000 <_entry-0x70000000>

  pop_off();
    80000834:	00000097          	auipc	ra,0x0
    80000838:	636080e7          	jalr	1590(ra) # 80000e6a <pop_off>
}
    8000083c:	60e2                	ld	ra,24(sp)
    8000083e:	6442                	ld	s0,16(sp)
    80000840:	64a2                	ld	s1,8(sp)
    80000842:	6105                	addi	sp,sp,32
    80000844:	8082                	ret

0000000080000846 <uartstart>:
// called from both the top- and bottom-half.
void
uartstart()
{
  while(1){
    if(uart_tx_w == uart_tx_r){
    80000846:	00009717          	auipc	a4,0x9
    8000084a:	3c273703          	ld	a4,962(a4) # 80009c08 <uart_tx_r>
    8000084e:	00009797          	auipc	a5,0x9
    80000852:	3c27b783          	ld	a5,962(a5) # 80009c10 <uart_tx_w>
    80000856:	06e78c63          	beq	a5,a4,800008ce <uartstart+0x88>
{
    8000085a:	7139                	addi	sp,sp,-64
    8000085c:	fc06                	sd	ra,56(sp)
    8000085e:	f822                	sd	s0,48(sp)
    80000860:	f426                	sd	s1,40(sp)
    80000862:	f04a                	sd	s2,32(sp)
    80000864:	ec4e                	sd	s3,24(sp)
    80000866:	e852                	sd	s4,16(sp)
    80000868:	e456                	sd	s5,8(sp)
    8000086a:	0080                	addi	s0,sp,64
      // transmit buffer is empty.
      return;
    }
    
    if((ReadReg(LSR) & LSR_TX_IDLE) == 0){
    8000086c:	10000937          	lui	s2,0x10000
      // so we cannot give it another byte.
      // it will interrupt when it's ready for a new byte.
      return;
    }
    
    int c = uart_tx_buf[uart_tx_r % UART_TX_BUF_SIZE];
    80000870:	00011a17          	auipc	s4,0x11
    80000874:	5d8a0a13          	addi	s4,s4,1496 # 80011e48 <uart_tx_lock>
    uart_tx_r += 1;
    80000878:	00009497          	auipc	s1,0x9
    8000087c:	39048493          	addi	s1,s1,912 # 80009c08 <uart_tx_r>
    if(uart_tx_w == uart_tx_r){
    80000880:	00009997          	auipc	s3,0x9
    80000884:	39098993          	addi	s3,s3,912 # 80009c10 <uart_tx_w>
    if((ReadReg(LSR) & LSR_TX_IDLE) == 0){
    80000888:	00594783          	lbu	a5,5(s2) # 10000005 <_entry-0x6ffffffb>
    8000088c:	0ff7f793          	andi	a5,a5,255
    80000890:	0207f793          	andi	a5,a5,32
    80000894:	c785                	beqz	a5,800008bc <uartstart+0x76>
    int c = uart_tx_buf[uart_tx_r % UART_TX_BUF_SIZE];
    80000896:	01f77793          	andi	a5,a4,31
    8000089a:	97d2                	add	a5,a5,s4
    8000089c:	0187ca83          	lbu	s5,24(a5)
    uart_tx_r += 1;
    800008a0:	0705                	addi	a4,a4,1
    800008a2:	e098                	sd	a4,0(s1)
    
    // maybe uartputc() is waiting for space in the buffer.
    wakeup(&uart_tx_r);
    800008a4:	8526                	mv	a0,s1
    800008a6:	00002097          	auipc	ra,0x2
    800008aa:	57a080e7          	jalr	1402(ra) # 80002e20 <wakeup>
    
    WriteReg(THR, c);
    800008ae:	01590023          	sb	s5,0(s2)
    if(uart_tx_w == uart_tx_r){
    800008b2:	6098                	ld	a4,0(s1)
    800008b4:	0009b783          	ld	a5,0(s3)
    800008b8:	fce798e3          	bne	a5,a4,80000888 <uartstart+0x42>
  }
}
    800008bc:	70e2                	ld	ra,56(sp)
    800008be:	7442                	ld	s0,48(sp)
    800008c0:	74a2                	ld	s1,40(sp)
    800008c2:	7902                	ld	s2,32(sp)
    800008c4:	69e2                	ld	s3,24(sp)
    800008c6:	6a42                	ld	s4,16(sp)
    800008c8:	6aa2                	ld	s5,8(sp)
    800008ca:	6121                	addi	sp,sp,64
    800008cc:	8082                	ret
    800008ce:	8082                	ret

00000000800008d0 <uartputc>:
{
    800008d0:	7179                	addi	sp,sp,-48
    800008d2:	f406                	sd	ra,40(sp)
    800008d4:	f022                	sd	s0,32(sp)
    800008d6:	ec26                	sd	s1,24(sp)
    800008d8:	e84a                	sd	s2,16(sp)
    800008da:	e44e                	sd	s3,8(sp)
    800008dc:	e052                	sd	s4,0(sp)
    800008de:	1800                	addi	s0,sp,48
    800008e0:	89aa                	mv	s3,a0
  acquire(&uart_tx_lock);
    800008e2:	00011517          	auipc	a0,0x11
    800008e6:	56650513          	addi	a0,a0,1382 # 80011e48 <uart_tx_lock>
    800008ea:	00000097          	auipc	ra,0x0
    800008ee:	52c080e7          	jalr	1324(ra) # 80000e16 <acquire>
  if(panicked){
    800008f2:	00009797          	auipc	a5,0x9
    800008f6:	30e7a783          	lw	a5,782(a5) # 80009c00 <panicked>
    800008fa:	e7c9                	bnez	a5,80000984 <uartputc+0xb4>
  while(uart_tx_w == uart_tx_r + UART_TX_BUF_SIZE){
    800008fc:	00009797          	auipc	a5,0x9
    80000900:	3147b783          	ld	a5,788(a5) # 80009c10 <uart_tx_w>
    80000904:	00009717          	auipc	a4,0x9
    80000908:	30473703          	ld	a4,772(a4) # 80009c08 <uart_tx_r>
    8000090c:	02070713          	addi	a4,a4,32
    sleep(&uart_tx_r, &uart_tx_lock);
    80000910:	00011a17          	auipc	s4,0x11
    80000914:	538a0a13          	addi	s4,s4,1336 # 80011e48 <uart_tx_lock>
    80000918:	00009497          	auipc	s1,0x9
    8000091c:	2f048493          	addi	s1,s1,752 # 80009c08 <uart_tx_r>
  while(uart_tx_w == uart_tx_r + UART_TX_BUF_SIZE){
    80000920:	00009917          	auipc	s2,0x9
    80000924:	2f090913          	addi	s2,s2,752 # 80009c10 <uart_tx_w>
    80000928:	00f71f63          	bne	a4,a5,80000946 <uartputc+0x76>
    sleep(&uart_tx_r, &uart_tx_lock);
    8000092c:	85d2                	mv	a1,s4
    8000092e:	8526                	mv	a0,s1
    80000930:	00002097          	auipc	ra,0x2
    80000934:	214080e7          	jalr	532(ra) # 80002b44 <sleep>
  while(uart_tx_w == uart_tx_r + UART_TX_BUF_SIZE){
    80000938:	00093783          	ld	a5,0(s2)
    8000093c:	6098                	ld	a4,0(s1)
    8000093e:	02070713          	addi	a4,a4,32
    80000942:	fef705e3          	beq	a4,a5,8000092c <uartputc+0x5c>
  uart_tx_buf[uart_tx_w % UART_TX_BUF_SIZE] = c;
    80000946:	00011497          	auipc	s1,0x11
    8000094a:	50248493          	addi	s1,s1,1282 # 80011e48 <uart_tx_lock>
    8000094e:	01f7f713          	andi	a4,a5,31
    80000952:	9726                	add	a4,a4,s1
    80000954:	01370c23          	sb	s3,24(a4)
  uart_tx_w += 1;
    80000958:	0785                	addi	a5,a5,1
    8000095a:	00009717          	auipc	a4,0x9
    8000095e:	2af73b23          	sd	a5,694(a4) # 80009c10 <uart_tx_w>
  uartstart();
    80000962:	00000097          	auipc	ra,0x0
    80000966:	ee4080e7          	jalr	-284(ra) # 80000846 <uartstart>
  release(&uart_tx_lock);
    8000096a:	8526                	mv	a0,s1
    8000096c:	00000097          	auipc	ra,0x0
    80000970:	55e080e7          	jalr	1374(ra) # 80000eca <release>
}
    80000974:	70a2                	ld	ra,40(sp)
    80000976:	7402                	ld	s0,32(sp)
    80000978:	64e2                	ld	s1,24(sp)
    8000097a:	6942                	ld	s2,16(sp)
    8000097c:	69a2                	ld	s3,8(sp)
    8000097e:	6a02                	ld	s4,0(sp)
    80000980:	6145                	addi	sp,sp,48
    80000982:	8082                	ret
    for(;;)
    80000984:	a001                	j	80000984 <uartputc+0xb4>

0000000080000986 <uartgetc>:

// read one input character from the UART.
// return -1 if none is waiting.
int
uartgetc(void)
{
    80000986:	1141                	addi	sp,sp,-16
    80000988:	e422                	sd	s0,8(sp)
    8000098a:	0800                	addi	s0,sp,16
  if(ReadReg(LSR) & 0x01){
    8000098c:	100007b7          	lui	a5,0x10000
    80000990:	0057c783          	lbu	a5,5(a5) # 10000005 <_entry-0x6ffffffb>
    80000994:	8b85                	andi	a5,a5,1
    80000996:	cb91                	beqz	a5,800009aa <uartgetc+0x24>
    // input data is ready.
    return ReadReg(RHR);
    80000998:	100007b7          	lui	a5,0x10000
    8000099c:	0007c503          	lbu	a0,0(a5) # 10000000 <_entry-0x70000000>
    800009a0:	0ff57513          	andi	a0,a0,255
  } else {
    return -1;
  }
}
    800009a4:	6422                	ld	s0,8(sp)
    800009a6:	0141                	addi	sp,sp,16
    800009a8:	8082                	ret
    return -1;
    800009aa:	557d                	li	a0,-1
    800009ac:	bfe5                	j	800009a4 <uartgetc+0x1e>

00000000800009ae <uartintr>:
// handle a uart interrupt, raised because input has
// arrived, or the uart is ready for more output, or
// both. called from devintr().
void
uartintr(void)
{
    800009ae:	1101                	addi	sp,sp,-32
    800009b0:	ec06                	sd	ra,24(sp)
    800009b2:	e822                	sd	s0,16(sp)
    800009b4:	e426                	sd	s1,8(sp)
    800009b6:	1000                	addi	s0,sp,32
  // read and process incoming characters.
  while(1){
    int c = uartgetc();
    if(c == -1)
    800009b8:	54fd                	li	s1,-1
    int c = uartgetc();
    800009ba:	00000097          	auipc	ra,0x0
    800009be:	fcc080e7          	jalr	-52(ra) # 80000986 <uartgetc>
    if(c == -1)
    800009c2:	00950763          	beq	a0,s1,800009d0 <uartintr+0x22>
      break;
    consoleintr(c);
    800009c6:	00000097          	auipc	ra,0x0
    800009ca:	8fe080e7          	jalr	-1794(ra) # 800002c4 <consoleintr>
  while(1){
    800009ce:	b7f5                	j	800009ba <uartintr+0xc>
  }

  // send buffered characters.
  acquire(&uart_tx_lock);
    800009d0:	00011497          	auipc	s1,0x11
    800009d4:	47848493          	addi	s1,s1,1144 # 80011e48 <uart_tx_lock>
    800009d8:	8526                	mv	a0,s1
    800009da:	00000097          	auipc	ra,0x0
    800009de:	43c080e7          	jalr	1084(ra) # 80000e16 <acquire>
  uartstart();
    800009e2:	00000097          	auipc	ra,0x0
    800009e6:	e64080e7          	jalr	-412(ra) # 80000846 <uartstart>
  release(&uart_tx_lock);
    800009ea:	8526                	mv	a0,s1
    800009ec:	00000097          	auipc	ra,0x0
    800009f0:	4de080e7          	jalr	1246(ra) # 80000eca <release>
}
    800009f4:	60e2                	ld	ra,24(sp)
    800009f6:	6442                	ld	s0,16(sp)
    800009f8:	64a2                	ld	s1,8(sp)
    800009fa:	6105                	addi	sp,sp,32
    800009fc:	8082                	ret

00000000800009fe <initialize_page>:
  struct spinlock lock;
  int arr[PGROUNDUP(PHYSTOP) >> 12];
} pagex;

void initialize_page()
{
    800009fe:	1141                	addi	sp,sp,-16
    80000a00:	e406                	sd	ra,8(sp)
    80000a02:	e022                	sd	s0,0(sp)
    80000a04:	0800                	addi	s0,sp,16
  initlock(&pagex.lock, "pagex");
    80000a06:	00008597          	auipc	a1,0x8
    80000a0a:	65a58593          	addi	a1,a1,1626 # 80009060 <digits+0x20>
    80000a0e:	00011517          	auipc	a0,0x11
    80000a12:	49250513          	addi	a0,a0,1170 # 80011ea0 <pagex>
    80000a16:	00000097          	auipc	ra,0x0
    80000a1a:	370080e7          	jalr	880(ra) # 80000d86 <initlock>
  acquire(&pagex.lock);
    80000a1e:	00011517          	auipc	a0,0x11
    80000a22:	48250513          	addi	a0,a0,1154 # 80011ea0 <pagex>
    80000a26:	00000097          	auipc	ra,0x0
    80000a2a:	3f0080e7          	jalr	1008(ra) # 80000e16 <acquire>
  uint64 val = PGROUNDUP(PHYSTOP) >> 12;
  for (int i = 0; i < val; i++)
    80000a2e:	00011797          	auipc	a5,0x11
    80000a32:	48a78793          	addi	a5,a5,1162 # 80011eb8 <pagex+0x18>
    80000a36:	00231717          	auipc	a4,0x231
    80000a3a:	48270713          	addi	a4,a4,1154 # 80231eb8 <pid_lock>
  {
    pagex.arr[i] = 0;
    80000a3e:	0007a023          	sw	zero,0(a5)
  for (int i = 0; i < val; i++)
    80000a42:	0791                	addi	a5,a5,4
    80000a44:	fee79de3          	bne	a5,a4,80000a3e <initialize_page+0x40>
  }
  release(&pagex.lock);
    80000a48:	00011517          	auipc	a0,0x11
    80000a4c:	45850513          	addi	a0,a0,1112 # 80011ea0 <pagex>
    80000a50:	00000097          	auipc	ra,0x0
    80000a54:	47a080e7          	jalr	1146(ra) # 80000eca <release>
}
    80000a58:	60a2                	ld	ra,8(sp)
    80000a5a:	6402                	ld	s0,0(sp)
    80000a5c:	0141                	addi	sp,sp,16
    80000a5e:	8082                	ret

0000000080000a60 <extract_page>:

int extract_page(void *pa)
{
    80000a60:	1101                	addi	sp,sp,-32
    80000a62:	ec06                	sd	ra,24(sp)
    80000a64:	e822                	sd	s0,16(sp)
    80000a66:	e426                	sd	s1,8(sp)
    80000a68:	1000                	addi	s0,sp,32
    80000a6a:	84aa                	mv	s1,a0
  acquire(&pagex.lock);
    80000a6c:	00011517          	auipc	a0,0x11
    80000a70:	43450513          	addi	a0,a0,1076 # 80011ea0 <pagex>
    80000a74:	00000097          	auipc	ra,0x0
    80000a78:	3a2080e7          	jalr	930(ra) # 80000e16 <acquire>
  int res = pagex.arr[(uint64)pa >> 12];
    80000a7c:	80b1                	srli	s1,s1,0xc
    80000a7e:	0491                	addi	s1,s1,4
    80000a80:	048a                	slli	s1,s1,0x2
    80000a82:	00011797          	auipc	a5,0x11
    80000a86:	41e78793          	addi	a5,a5,1054 # 80011ea0 <pagex>
    80000a8a:	94be                	add	s1,s1,a5
    80000a8c:	4484                	lw	s1,8(s1)
  if (pagex.arr[(uint64)pa >> 12] >= 0)
    80000a8e:	0204c063          	bltz	s1,80000aae <extract_page+0x4e>
  {
    release(&pagex.lock);
    80000a92:	00011517          	auipc	a0,0x11
    80000a96:	40e50513          	addi	a0,a0,1038 # 80011ea0 <pagex>
    80000a9a:	00000097          	auipc	ra,0x0
    80000a9e:	430080e7          	jalr	1072(ra) # 80000eca <release>
  }
  else
  {
    panic("extract_page");
  }
}
    80000aa2:	8526                	mv	a0,s1
    80000aa4:	60e2                	ld	ra,24(sp)
    80000aa6:	6442                	ld	s0,16(sp)
    80000aa8:	64a2                	ld	s1,8(sp)
    80000aaa:	6105                	addi	sp,sp,32
    80000aac:	8082                	ret
    panic("extract_page");
    80000aae:	00008517          	auipc	a0,0x8
    80000ab2:	5ba50513          	addi	a0,a0,1466 # 80009068 <digits+0x28>
    80000ab6:	00000097          	auipc	ra,0x0
    80000aba:	a8e080e7          	jalr	-1394(ra) # 80000544 <panic>

0000000080000abe <increment_page>:

void increment_page(void *pa)
{
    80000abe:	1101                	addi	sp,sp,-32
    80000ac0:	ec06                	sd	ra,24(sp)
    80000ac2:	e822                	sd	s0,16(sp)
    80000ac4:	e426                	sd	s1,8(sp)
    80000ac6:	1000                	addi	s0,sp,32
    80000ac8:	84aa                	mv	s1,a0
  acquire(&pagex.lock);
    80000aca:	00011517          	auipc	a0,0x11
    80000ace:	3d650513          	addi	a0,a0,982 # 80011ea0 <pagex>
    80000ad2:	00000097          	auipc	ra,0x0
    80000ad6:	344080e7          	jalr	836(ra) # 80000e16 <acquire>
  uint64 res = (uint64)pa >> 12;
    80000ada:	00c4d793          	srli	a5,s1,0xc
  if (pagex.arr[res] >= 0)
    80000ade:	00478713          	addi	a4,a5,4
    80000ae2:	00271693          	slli	a3,a4,0x2
    80000ae6:	00011717          	auipc	a4,0x11
    80000aea:	3ba70713          	addi	a4,a4,954 # 80011ea0 <pagex>
    80000aee:	9736                	add	a4,a4,a3
    80000af0:	4718                	lw	a4,8(a4)
    80000af2:	02074363          	bltz	a4,80000b18 <increment_page+0x5a>
  {
    pagex.arr[res] += 1;
    80000af6:	00011517          	auipc	a0,0x11
    80000afa:	3aa50513          	addi	a0,a0,938 # 80011ea0 <pagex>
    80000afe:	00d507b3          	add	a5,a0,a3
    80000b02:	2705                	addiw	a4,a4,1
    80000b04:	c798                	sw	a4,8(a5)
    release(&pagex.lock);
    80000b06:	00000097          	auipc	ra,0x0
    80000b0a:	3c4080e7          	jalr	964(ra) # 80000eca <release>
  else
  {
    panic("increment_page");
    return;
  }
}
    80000b0e:	60e2                	ld	ra,24(sp)
    80000b10:	6442                	ld	s0,16(sp)
    80000b12:	64a2                	ld	s1,8(sp)
    80000b14:	6105                	addi	sp,sp,32
    80000b16:	8082                	ret
    panic("increment_page");
    80000b18:	00008517          	auipc	a0,0x8
    80000b1c:	56050513          	addi	a0,a0,1376 # 80009078 <digits+0x38>
    80000b20:	00000097          	auipc	ra,0x0
    80000b24:	a24080e7          	jalr	-1500(ra) # 80000544 <panic>

0000000080000b28 <decrement_page>:

void decrement_page(void *pa)
{
    80000b28:	1101                	addi	sp,sp,-32
    80000b2a:	ec06                	sd	ra,24(sp)
    80000b2c:	e822                	sd	s0,16(sp)
    80000b2e:	e426                	sd	s1,8(sp)
    80000b30:	1000                	addi	s0,sp,32
    80000b32:	84aa                	mv	s1,a0
  acquire(&pagex.lock);
    80000b34:	00011517          	auipc	a0,0x11
    80000b38:	36c50513          	addi	a0,a0,876 # 80011ea0 <pagex>
    80000b3c:	00000097          	auipc	ra,0x0
    80000b40:	2da080e7          	jalr	730(ra) # 80000e16 <acquire>
  uint64 res = (uint64)pa >> 12;
    80000b44:	00c4d793          	srli	a5,s1,0xc
  if (pagex.arr[res] > 0)
    80000b48:	00478713          	addi	a4,a5,4
    80000b4c:	00271693          	slli	a3,a4,0x2
    80000b50:	00011717          	auipc	a4,0x11
    80000b54:	35070713          	addi	a4,a4,848 # 80011ea0 <pagex>
    80000b58:	9736                	add	a4,a4,a3
    80000b5a:	4718                	lw	a4,8(a4)
    80000b5c:	02e05363          	blez	a4,80000b82 <decrement_page+0x5a>
  {
    pagex.arr[res] -= 1;
    80000b60:	00011517          	auipc	a0,0x11
    80000b64:	34050513          	addi	a0,a0,832 # 80011ea0 <pagex>
    80000b68:	00d507b3          	add	a5,a0,a3
    80000b6c:	377d                	addiw	a4,a4,-1
    80000b6e:	c798                	sw	a4,8(a5)
    release(&pagex.lock);
    80000b70:	00000097          	auipc	ra,0x0
    80000b74:	35a080e7          	jalr	858(ra) # 80000eca <release>
  else
  {
    panic("decrement_page");
    return;
  }
}
    80000b78:	60e2                	ld	ra,24(sp)
    80000b7a:	6442                	ld	s0,16(sp)
    80000b7c:	64a2                	ld	s1,8(sp)
    80000b7e:	6105                	addi	sp,sp,32
    80000b80:	8082                	ret
    panic("decrement_page");
    80000b82:	00008517          	auipc	a0,0x8
    80000b86:	50650513          	addi	a0,a0,1286 # 80009088 <digits+0x48>
    80000b8a:	00000097          	auipc	ra,0x0
    80000b8e:	9ba080e7          	jalr	-1606(ra) # 80000544 <panic>

0000000080000b92 <kfree>:
// Free the page of physical memory pointed at by pa,
// which normally should have been returned by a
// call to kalloc().  (The exception is when
// initializing the allocator; see kinit above.)
void kfree(void *pa)
{
    80000b92:	1101                	addi	sp,sp,-32
    80000b94:	ec06                	sd	ra,24(sp)
    80000b96:	e822                	sd	s0,16(sp)
    80000b98:	e426                	sd	s1,8(sp)
    80000b9a:	e04a                	sd	s2,0(sp)
    80000b9c:	1000                	addi	s0,sp,32
  struct run *r;

  if (((uint64)pa % PGSIZE) != 0 || (char *)pa < end || (uint64)pa >= PHYSTOP)
    80000b9e:	03451793          	slli	a5,a0,0x34
    80000ba2:	e7dd                	bnez	a5,80000c50 <kfree+0xbe>
    80000ba4:	84aa                	mv	s1,a0
    80000ba6:	00246797          	auipc	a5,0x246
    80000baa:	7c278793          	addi	a5,a5,1986 # 80247368 <end>
    80000bae:	0af56163          	bltu	a0,a5,80000c50 <kfree+0xbe>
    80000bb2:	47c5                	li	a5,17
    80000bb4:	07ee                	slli	a5,a5,0x1b
    80000bb6:	08f57d63          	bgeu	a0,a5,80000c50 <kfree+0xbe>
    panic("kfree");
  acquire(&pagex.lock);
    80000bba:	00011517          	auipc	a0,0x11
    80000bbe:	2e650513          	addi	a0,a0,742 # 80011ea0 <pagex>
    80000bc2:	00000097          	auipc	ra,0x0
    80000bc6:	254080e7          	jalr	596(ra) # 80000e16 <acquire>
  if (pagex.arr[(uint64)pa >> 12] <= 0)
    80000bca:	00c4d793          	srli	a5,s1,0xc
    80000bce:	00478713          	addi	a4,a5,4
    80000bd2:	00271693          	slli	a3,a4,0x2
    80000bd6:	00011717          	auipc	a4,0x11
    80000bda:	2ca70713          	addi	a4,a4,714 # 80011ea0 <pagex>
    80000bde:	9736                	add	a4,a4,a3
    80000be0:	4718                	lw	a4,8(a4)
    80000be2:	06e05f63          	blez	a4,80000c60 <kfree+0xce>
  {
    panic("decrement_page");
  }
  pagex.arr[(uint64)pa >> 12] = pagex.arr[(uint64)pa >> 12] - 1;
    80000be6:	377d                	addiw	a4,a4,-1
    80000be8:	0007061b          	sext.w	a2,a4
    80000bec:	0791                	addi	a5,a5,4
    80000bee:	078a                	slli	a5,a5,0x2
    80000bf0:	00011697          	auipc	a3,0x11
    80000bf4:	2b068693          	addi	a3,a3,688 # 80011ea0 <pagex>
    80000bf8:	97b6                	add	a5,a5,a3
    80000bfa:	c798                	sw	a4,8(a5)
  if (pagex.arr[(uint64)pa >> 12] > 0)
    80000bfc:	06c04a63          	bgtz	a2,80000c70 <kfree+0xde>
    release(&pagex.lock);
    return;
  }
  else
  {
    release(&pagex.lock);
    80000c00:	00011517          	auipc	a0,0x11
    80000c04:	2a050513          	addi	a0,a0,672 # 80011ea0 <pagex>
    80000c08:	00000097          	auipc	ra,0x0
    80000c0c:	2c2080e7          	jalr	706(ra) # 80000eca <release>

    // Fill with junk to catch dangling refs.
    memset(pa, 1, PGSIZE);
    80000c10:	6605                	lui	a2,0x1
    80000c12:	4585                	li	a1,1
    80000c14:	8526                	mv	a0,s1
    80000c16:	00000097          	auipc	ra,0x0
    80000c1a:	2fc080e7          	jalr	764(ra) # 80000f12 <memset>

    r = (struct run *)pa;

    acquire(&kmem.lock);
    80000c1e:	00011917          	auipc	s2,0x11
    80000c22:	26290913          	addi	s2,s2,610 # 80011e80 <kmem>
    80000c26:	854a                	mv	a0,s2
    80000c28:	00000097          	auipc	ra,0x0
    80000c2c:	1ee080e7          	jalr	494(ra) # 80000e16 <acquire>
    r->next = kmem.freelist;
    80000c30:	01893783          	ld	a5,24(s2)
    80000c34:	e09c                	sd	a5,0(s1)
    kmem.freelist = r;
    80000c36:	00993c23          	sd	s1,24(s2)
    release(&kmem.lock);
    80000c3a:	854a                	mv	a0,s2
    80000c3c:	00000097          	auipc	ra,0x0
    80000c40:	28e080e7          	jalr	654(ra) # 80000eca <release>
  }
  return;
}
    80000c44:	60e2                	ld	ra,24(sp)
    80000c46:	6442                	ld	s0,16(sp)
    80000c48:	64a2                	ld	s1,8(sp)
    80000c4a:	6902                	ld	s2,0(sp)
    80000c4c:	6105                	addi	sp,sp,32
    80000c4e:	8082                	ret
    panic("kfree");
    80000c50:	00008517          	auipc	a0,0x8
    80000c54:	44850513          	addi	a0,a0,1096 # 80009098 <digits+0x58>
    80000c58:	00000097          	auipc	ra,0x0
    80000c5c:	8ec080e7          	jalr	-1812(ra) # 80000544 <panic>
    panic("decrement_page");
    80000c60:	00008517          	auipc	a0,0x8
    80000c64:	42850513          	addi	a0,a0,1064 # 80009088 <digits+0x48>
    80000c68:	00000097          	auipc	ra,0x0
    80000c6c:	8dc080e7          	jalr	-1828(ra) # 80000544 <panic>
    release(&pagex.lock);
    80000c70:	8536                	mv	a0,a3
    80000c72:	00000097          	auipc	ra,0x0
    80000c76:	258080e7          	jalr	600(ra) # 80000eca <release>
    return;
    80000c7a:	b7e9                	j	80000c44 <kfree+0xb2>

0000000080000c7c <freerange>:
{
    80000c7c:	7139                	addi	sp,sp,-64
    80000c7e:	fc06                	sd	ra,56(sp)
    80000c80:	f822                	sd	s0,48(sp)
    80000c82:	f426                	sd	s1,40(sp)
    80000c84:	f04a                	sd	s2,32(sp)
    80000c86:	ec4e                	sd	s3,24(sp)
    80000c88:	e852                	sd	s4,16(sp)
    80000c8a:	e456                	sd	s5,8(sp)
    80000c8c:	0080                	addi	s0,sp,64
  p = (char *)PGROUNDUP((uint64)pa_start);
    80000c8e:	6785                	lui	a5,0x1
    80000c90:	fff78493          	addi	s1,a5,-1 # fff <_entry-0x7ffff001>
    80000c94:	94aa                	add	s1,s1,a0
    80000c96:	757d                	lui	a0,0xfffff
    80000c98:	8ce9                	and	s1,s1,a0
  for (; p + PGSIZE <= (char *)pa_end; p += PGSIZE)
    80000c9a:	94be                	add	s1,s1,a5
    80000c9c:	0295e463          	bltu	a1,s1,80000cc4 <freerange+0x48>
    80000ca0:	89ae                	mv	s3,a1
    80000ca2:	7afd                	lui	s5,0xfffff
    80000ca4:	6a05                	lui	s4,0x1
    80000ca6:	01548933          	add	s2,s1,s5
    increment_page(p);
    80000caa:	854a                	mv	a0,s2
    80000cac:	00000097          	auipc	ra,0x0
    80000cb0:	e12080e7          	jalr	-494(ra) # 80000abe <increment_page>
    kfree(p);
    80000cb4:	854a                	mv	a0,s2
    80000cb6:	00000097          	auipc	ra,0x0
    80000cba:	edc080e7          	jalr	-292(ra) # 80000b92 <kfree>
  for (; p + PGSIZE <= (char *)pa_end; p += PGSIZE)
    80000cbe:	94d2                	add	s1,s1,s4
    80000cc0:	fe99f3e3          	bgeu	s3,s1,80000ca6 <freerange+0x2a>
}
    80000cc4:	70e2                	ld	ra,56(sp)
    80000cc6:	7442                	ld	s0,48(sp)
    80000cc8:	74a2                	ld	s1,40(sp)
    80000cca:	7902                	ld	s2,32(sp)
    80000ccc:	69e2                	ld	s3,24(sp)
    80000cce:	6a42                	ld	s4,16(sp)
    80000cd0:	6aa2                	ld	s5,8(sp)
    80000cd2:	6121                	addi	sp,sp,64
    80000cd4:	8082                	ret

0000000080000cd6 <kinit>:
{
    80000cd6:	1141                	addi	sp,sp,-16
    80000cd8:	e406                	sd	ra,8(sp)
    80000cda:	e022                	sd	s0,0(sp)
    80000cdc:	0800                	addi	s0,sp,16
  initialize_page();
    80000cde:	00000097          	auipc	ra,0x0
    80000ce2:	d20080e7          	jalr	-736(ra) # 800009fe <initialize_page>
  initlock(&kmem.lock, "kmem");
    80000ce6:	00008597          	auipc	a1,0x8
    80000cea:	3ba58593          	addi	a1,a1,954 # 800090a0 <digits+0x60>
    80000cee:	00011517          	auipc	a0,0x11
    80000cf2:	19250513          	addi	a0,a0,402 # 80011e80 <kmem>
    80000cf6:	00000097          	auipc	ra,0x0
    80000cfa:	090080e7          	jalr	144(ra) # 80000d86 <initlock>
  freerange(end, (void *)PHYSTOP);
    80000cfe:	45c5                	li	a1,17
    80000d00:	05ee                	slli	a1,a1,0x1b
    80000d02:	00246517          	auipc	a0,0x246
    80000d06:	66650513          	addi	a0,a0,1638 # 80247368 <end>
    80000d0a:	00000097          	auipc	ra,0x0
    80000d0e:	f72080e7          	jalr	-142(ra) # 80000c7c <freerange>
}
    80000d12:	60a2                	ld	ra,8(sp)
    80000d14:	6402                	ld	s0,0(sp)
    80000d16:	0141                	addi	sp,sp,16
    80000d18:	8082                	ret

0000000080000d1a <kalloc>:
// Allocate one 4096-byte page of physical memory.
// Returns a pointer that the kernel can use.
// Returns 0 if the memory cannot be allocated.
void *
kalloc(void)
{
    80000d1a:	1101                	addi	sp,sp,-32
    80000d1c:	ec06                	sd	ra,24(sp)
    80000d1e:	e822                	sd	s0,16(sp)
    80000d20:	e426                	sd	s1,8(sp)
    80000d22:	1000                	addi	s0,sp,32
  struct run *r;

  acquire(&kmem.lock);
    80000d24:	00011497          	auipc	s1,0x11
    80000d28:	15c48493          	addi	s1,s1,348 # 80011e80 <kmem>
    80000d2c:	8526                	mv	a0,s1
    80000d2e:	00000097          	auipc	ra,0x0
    80000d32:	0e8080e7          	jalr	232(ra) # 80000e16 <acquire>
  r = kmem.freelist;
    80000d36:	6c84                	ld	s1,24(s1)
  if (r)
    80000d38:	cc95                	beqz	s1,80000d74 <kalloc+0x5a>
    kmem.freelist = r->next;
    80000d3a:	609c                	ld	a5,0(s1)
    80000d3c:	00011517          	auipc	a0,0x11
    80000d40:	14450513          	addi	a0,a0,324 # 80011e80 <kmem>
    80000d44:	ed1c                	sd	a5,24(a0)
  release(&kmem.lock);
    80000d46:	00000097          	auipc	ra,0x0
    80000d4a:	184080e7          	jalr	388(ra) # 80000eca <release>

  if (r)
  {
    memset((char *)r, 100, PGSIZE); // fill with junk
    80000d4e:	6605                	lui	a2,0x1
    80000d50:	06400593          	li	a1,100
    80000d54:	8526                	mv	a0,s1
    80000d56:	00000097          	auipc	ra,0x0
    80000d5a:	1bc080e7          	jalr	444(ra) # 80000f12 <memset>
    increment_page((void *)r);
    80000d5e:	8526                	mv	a0,s1
    80000d60:	00000097          	auipc	ra,0x0
    80000d64:	d5e080e7          	jalr	-674(ra) # 80000abe <increment_page>
  }
  return (void *)r;
}
    80000d68:	8526                	mv	a0,s1
    80000d6a:	60e2                	ld	ra,24(sp)
    80000d6c:	6442                	ld	s0,16(sp)
    80000d6e:	64a2                	ld	s1,8(sp)
    80000d70:	6105                	addi	sp,sp,32
    80000d72:	8082                	ret
  release(&kmem.lock);
    80000d74:	00011517          	auipc	a0,0x11
    80000d78:	10c50513          	addi	a0,a0,268 # 80011e80 <kmem>
    80000d7c:	00000097          	auipc	ra,0x0
    80000d80:	14e080e7          	jalr	334(ra) # 80000eca <release>
  if (r)
    80000d84:	b7d5                	j	80000d68 <kalloc+0x4e>

0000000080000d86 <initlock>:
#include "proc.h"
#include "defs.h"

void
initlock(struct spinlock *lk, char *name)
{
    80000d86:	1141                	addi	sp,sp,-16
    80000d88:	e422                	sd	s0,8(sp)
    80000d8a:	0800                	addi	s0,sp,16
  lk->name = name;
    80000d8c:	e50c                	sd	a1,8(a0)
  lk->locked = 0;
    80000d8e:	00052023          	sw	zero,0(a0)
  lk->cpu = 0;
    80000d92:	00053823          	sd	zero,16(a0)
}
    80000d96:	6422                	ld	s0,8(sp)
    80000d98:	0141                	addi	sp,sp,16
    80000d9a:	8082                	ret

0000000080000d9c <holding>:
// Interrupts must be off.
int
holding(struct spinlock *lk)
{
  int r;
  r = (lk->locked && lk->cpu == mycpu());
    80000d9c:	411c                	lw	a5,0(a0)
    80000d9e:	e399                	bnez	a5,80000da4 <holding+0x8>
    80000da0:	4501                	li	a0,0
  return r;
}
    80000da2:	8082                	ret
{
    80000da4:	1101                	addi	sp,sp,-32
    80000da6:	ec06                	sd	ra,24(sp)
    80000da8:	e822                	sd	s0,16(sp)
    80000daa:	e426                	sd	s1,8(sp)
    80000dac:	1000                	addi	s0,sp,32
  r = (lk->locked && lk->cpu == mycpu());
    80000dae:	6904                	ld	s1,16(a0)
    80000db0:	00001097          	auipc	ra,0x1
    80000db4:	036080e7          	jalr	54(ra) # 80001de6 <mycpu>
    80000db8:	40a48533          	sub	a0,s1,a0
    80000dbc:	00153513          	seqz	a0,a0
}
    80000dc0:	60e2                	ld	ra,24(sp)
    80000dc2:	6442                	ld	s0,16(sp)
    80000dc4:	64a2                	ld	s1,8(sp)
    80000dc6:	6105                	addi	sp,sp,32
    80000dc8:	8082                	ret

0000000080000dca <push_off>:
// it takes two pop_off()s to undo two push_off()s.  Also, if interrupts
// are initially off, then push_off, pop_off leaves them off.

void
push_off(void)
{
    80000dca:	1101                	addi	sp,sp,-32
    80000dcc:	ec06                	sd	ra,24(sp)
    80000dce:	e822                	sd	s0,16(sp)
    80000dd0:	e426                	sd	s1,8(sp)
    80000dd2:	1000                	addi	s0,sp,32
  asm volatile("csrr %0, sstatus" : "=r" (x) );
    80000dd4:	100024f3          	csrr	s1,sstatus
    80000dd8:	100027f3          	csrr	a5,sstatus
  w_sstatus(r_sstatus() & ~SSTATUS_SIE);
    80000ddc:	9bf5                	andi	a5,a5,-3
  asm volatile("csrw sstatus, %0" : : "r" (x));
    80000dde:	10079073          	csrw	sstatus,a5
  int old = intr_get();

  intr_off();
  if(mycpu()->noff == 0)
    80000de2:	00001097          	auipc	ra,0x1
    80000de6:	004080e7          	jalr	4(ra) # 80001de6 <mycpu>
    80000dea:	5d3c                	lw	a5,120(a0)
    80000dec:	cf89                	beqz	a5,80000e06 <push_off+0x3c>
    mycpu()->intena = old;
  mycpu()->noff += 1;
    80000dee:	00001097          	auipc	ra,0x1
    80000df2:	ff8080e7          	jalr	-8(ra) # 80001de6 <mycpu>
    80000df6:	5d3c                	lw	a5,120(a0)
    80000df8:	2785                	addiw	a5,a5,1
    80000dfa:	dd3c                	sw	a5,120(a0)
}
    80000dfc:	60e2                	ld	ra,24(sp)
    80000dfe:	6442                	ld	s0,16(sp)
    80000e00:	64a2                	ld	s1,8(sp)
    80000e02:	6105                	addi	sp,sp,32
    80000e04:	8082                	ret
    mycpu()->intena = old;
    80000e06:	00001097          	auipc	ra,0x1
    80000e0a:	fe0080e7          	jalr	-32(ra) # 80001de6 <mycpu>
  return (x & SSTATUS_SIE) != 0;
    80000e0e:	8085                	srli	s1,s1,0x1
    80000e10:	8885                	andi	s1,s1,1
    80000e12:	dd64                	sw	s1,124(a0)
    80000e14:	bfe9                	j	80000dee <push_off+0x24>

0000000080000e16 <acquire>:
{
    80000e16:	1101                	addi	sp,sp,-32
    80000e18:	ec06                	sd	ra,24(sp)
    80000e1a:	e822                	sd	s0,16(sp)
    80000e1c:	e426                	sd	s1,8(sp)
    80000e1e:	1000                	addi	s0,sp,32
    80000e20:	84aa                	mv	s1,a0
  push_off(); // disable interrupts to avoid deadlock.
    80000e22:	00000097          	auipc	ra,0x0
    80000e26:	fa8080e7          	jalr	-88(ra) # 80000dca <push_off>
  if(holding(lk))
    80000e2a:	8526                	mv	a0,s1
    80000e2c:	00000097          	auipc	ra,0x0
    80000e30:	f70080e7          	jalr	-144(ra) # 80000d9c <holding>
  while(__sync_lock_test_and_set(&lk->locked, 1) != 0)
    80000e34:	4705                	li	a4,1
  if(holding(lk))
    80000e36:	e115                	bnez	a0,80000e5a <acquire+0x44>
  while(__sync_lock_test_and_set(&lk->locked, 1) != 0)
    80000e38:	87ba                	mv	a5,a4
    80000e3a:	0cf4a7af          	amoswap.w.aq	a5,a5,(s1)
    80000e3e:	2781                	sext.w	a5,a5
    80000e40:	ffe5                	bnez	a5,80000e38 <acquire+0x22>
  __sync_synchronize();
    80000e42:	0ff0000f          	fence
  lk->cpu = mycpu();
    80000e46:	00001097          	auipc	ra,0x1
    80000e4a:	fa0080e7          	jalr	-96(ra) # 80001de6 <mycpu>
    80000e4e:	e888                	sd	a0,16(s1)
}
    80000e50:	60e2                	ld	ra,24(sp)
    80000e52:	6442                	ld	s0,16(sp)
    80000e54:	64a2                	ld	s1,8(sp)
    80000e56:	6105                	addi	sp,sp,32
    80000e58:	8082                	ret
    panic("acquire");
    80000e5a:	00008517          	auipc	a0,0x8
    80000e5e:	24e50513          	addi	a0,a0,590 # 800090a8 <digits+0x68>
    80000e62:	fffff097          	auipc	ra,0xfffff
    80000e66:	6e2080e7          	jalr	1762(ra) # 80000544 <panic>

0000000080000e6a <pop_off>:

void
pop_off(void)
{
    80000e6a:	1141                	addi	sp,sp,-16
    80000e6c:	e406                	sd	ra,8(sp)
    80000e6e:	e022                	sd	s0,0(sp)
    80000e70:	0800                	addi	s0,sp,16
  struct cpu *c = mycpu();
    80000e72:	00001097          	auipc	ra,0x1
    80000e76:	f74080e7          	jalr	-140(ra) # 80001de6 <mycpu>
  asm volatile("csrr %0, sstatus" : "=r" (x) );
    80000e7a:	100027f3          	csrr	a5,sstatus
  return (x & SSTATUS_SIE) != 0;
    80000e7e:	8b89                	andi	a5,a5,2
  if(intr_get())
    80000e80:	e78d                	bnez	a5,80000eaa <pop_off+0x40>
    panic("pop_off - interruptible");
  if(c->noff < 1)
    80000e82:	5d3c                	lw	a5,120(a0)
    80000e84:	02f05b63          	blez	a5,80000eba <pop_off+0x50>
    panic("pop_off");
  c->noff -= 1;
    80000e88:	37fd                	addiw	a5,a5,-1
    80000e8a:	0007871b          	sext.w	a4,a5
    80000e8e:	dd3c                	sw	a5,120(a0)
  if(c->noff == 0 && c->intena)
    80000e90:	eb09                	bnez	a4,80000ea2 <pop_off+0x38>
    80000e92:	5d7c                	lw	a5,124(a0)
    80000e94:	c799                	beqz	a5,80000ea2 <pop_off+0x38>
  asm volatile("csrr %0, sstatus" : "=r" (x) );
    80000e96:	100027f3          	csrr	a5,sstatus
  w_sstatus(r_sstatus() | SSTATUS_SIE);
    80000e9a:	0027e793          	ori	a5,a5,2
  asm volatile("csrw sstatus, %0" : : "r" (x));
    80000e9e:	10079073          	csrw	sstatus,a5
    intr_on();
}
    80000ea2:	60a2                	ld	ra,8(sp)
    80000ea4:	6402                	ld	s0,0(sp)
    80000ea6:	0141                	addi	sp,sp,16
    80000ea8:	8082                	ret
    panic("pop_off - interruptible");
    80000eaa:	00008517          	auipc	a0,0x8
    80000eae:	20650513          	addi	a0,a0,518 # 800090b0 <digits+0x70>
    80000eb2:	fffff097          	auipc	ra,0xfffff
    80000eb6:	692080e7          	jalr	1682(ra) # 80000544 <panic>
    panic("pop_off");
    80000eba:	00008517          	auipc	a0,0x8
    80000ebe:	20e50513          	addi	a0,a0,526 # 800090c8 <digits+0x88>
    80000ec2:	fffff097          	auipc	ra,0xfffff
    80000ec6:	682080e7          	jalr	1666(ra) # 80000544 <panic>

0000000080000eca <release>:
{
    80000eca:	1101                	addi	sp,sp,-32
    80000ecc:	ec06                	sd	ra,24(sp)
    80000ece:	e822                	sd	s0,16(sp)
    80000ed0:	e426                	sd	s1,8(sp)
    80000ed2:	1000                	addi	s0,sp,32
    80000ed4:	84aa                	mv	s1,a0
  if(!holding(lk))
    80000ed6:	00000097          	auipc	ra,0x0
    80000eda:	ec6080e7          	jalr	-314(ra) # 80000d9c <holding>
    80000ede:	c115                	beqz	a0,80000f02 <release+0x38>
  lk->cpu = 0;
    80000ee0:	0004b823          	sd	zero,16(s1)
  __sync_synchronize();
    80000ee4:	0ff0000f          	fence
  __sync_lock_release(&lk->locked);
    80000ee8:	0f50000f          	fence	iorw,ow
    80000eec:	0804a02f          	amoswap.w	zero,zero,(s1)
  pop_off();
    80000ef0:	00000097          	auipc	ra,0x0
    80000ef4:	f7a080e7          	jalr	-134(ra) # 80000e6a <pop_off>
}
    80000ef8:	60e2                	ld	ra,24(sp)
    80000efa:	6442                	ld	s0,16(sp)
    80000efc:	64a2                	ld	s1,8(sp)
    80000efe:	6105                	addi	sp,sp,32
    80000f00:	8082                	ret
    panic("release");
    80000f02:	00008517          	auipc	a0,0x8
    80000f06:	1ce50513          	addi	a0,a0,462 # 800090d0 <digits+0x90>
    80000f0a:	fffff097          	auipc	ra,0xfffff
    80000f0e:	63a080e7          	jalr	1594(ra) # 80000544 <panic>

0000000080000f12 <memset>:
#include "types.h"

void*
memset(void *dst, int c, uint n)
{
    80000f12:	1141                	addi	sp,sp,-16
    80000f14:	e422                	sd	s0,8(sp)
    80000f16:	0800                	addi	s0,sp,16
  char *cdst = (char *) dst;
  int i;
  for(i = 0; i < n; i++){
    80000f18:	ce09                	beqz	a2,80000f32 <memset+0x20>
    80000f1a:	87aa                	mv	a5,a0
    80000f1c:	fff6071b          	addiw	a4,a2,-1
    80000f20:	1702                	slli	a4,a4,0x20
    80000f22:	9301                	srli	a4,a4,0x20
    80000f24:	0705                	addi	a4,a4,1
    80000f26:	972a                	add	a4,a4,a0
    cdst[i] = c;
    80000f28:	00b78023          	sb	a1,0(a5)
  for(i = 0; i < n; i++){
    80000f2c:	0785                	addi	a5,a5,1
    80000f2e:	fee79de3          	bne	a5,a4,80000f28 <memset+0x16>
  }
  return dst;
}
    80000f32:	6422                	ld	s0,8(sp)
    80000f34:	0141                	addi	sp,sp,16
    80000f36:	8082                	ret

0000000080000f38 <memcmp>:

int
memcmp(const void *v1, const void *v2, uint n)
{
    80000f38:	1141                	addi	sp,sp,-16
    80000f3a:	e422                	sd	s0,8(sp)
    80000f3c:	0800                	addi	s0,sp,16
  const uchar *s1, *s2;

  s1 = v1;
  s2 = v2;
  while(n-- > 0){
    80000f3e:	ca05                	beqz	a2,80000f6e <memcmp+0x36>
    80000f40:	fff6069b          	addiw	a3,a2,-1
    80000f44:	1682                	slli	a3,a3,0x20
    80000f46:	9281                	srli	a3,a3,0x20
    80000f48:	0685                	addi	a3,a3,1
    80000f4a:	96aa                	add	a3,a3,a0
    if(*s1 != *s2)
    80000f4c:	00054783          	lbu	a5,0(a0)
    80000f50:	0005c703          	lbu	a4,0(a1)
    80000f54:	00e79863          	bne	a5,a4,80000f64 <memcmp+0x2c>
      return *s1 - *s2;
    s1++, s2++;
    80000f58:	0505                	addi	a0,a0,1
    80000f5a:	0585                	addi	a1,a1,1
  while(n-- > 0){
    80000f5c:	fed518e3          	bne	a0,a3,80000f4c <memcmp+0x14>
  }

  return 0;
    80000f60:	4501                	li	a0,0
    80000f62:	a019                	j	80000f68 <memcmp+0x30>
      return *s1 - *s2;
    80000f64:	40e7853b          	subw	a0,a5,a4
}
    80000f68:	6422                	ld	s0,8(sp)
    80000f6a:	0141                	addi	sp,sp,16
    80000f6c:	8082                	ret
  return 0;
    80000f6e:	4501                	li	a0,0
    80000f70:	bfe5                	j	80000f68 <memcmp+0x30>

0000000080000f72 <memmove>:

void*
memmove(void *dst, const void *src, uint n)
{
    80000f72:	1141                	addi	sp,sp,-16
    80000f74:	e422                	sd	s0,8(sp)
    80000f76:	0800                	addi	s0,sp,16
  const char *s;
  char *d;

  if(n == 0)
    80000f78:	ca0d                	beqz	a2,80000faa <memmove+0x38>
    return dst;
  
  s = src;
  d = dst;
  if(s < d && s + n > d){
    80000f7a:	00a5f963          	bgeu	a1,a0,80000f8c <memmove+0x1a>
    80000f7e:	02061693          	slli	a3,a2,0x20
    80000f82:	9281                	srli	a3,a3,0x20
    80000f84:	00d58733          	add	a4,a1,a3
    80000f88:	02e56463          	bltu	a0,a4,80000fb0 <memmove+0x3e>
    s += n;
    d += n;
    while(n-- > 0)
      *--d = *--s;
  } else
    while(n-- > 0)
    80000f8c:	fff6079b          	addiw	a5,a2,-1
    80000f90:	1782                	slli	a5,a5,0x20
    80000f92:	9381                	srli	a5,a5,0x20
    80000f94:	0785                	addi	a5,a5,1
    80000f96:	97ae                	add	a5,a5,a1
    80000f98:	872a                	mv	a4,a0
      *d++ = *s++;
    80000f9a:	0585                	addi	a1,a1,1
    80000f9c:	0705                	addi	a4,a4,1
    80000f9e:	fff5c683          	lbu	a3,-1(a1)
    80000fa2:	fed70fa3          	sb	a3,-1(a4)
    while(n-- > 0)
    80000fa6:	fef59ae3          	bne	a1,a5,80000f9a <memmove+0x28>

  return dst;
}
    80000faa:	6422                	ld	s0,8(sp)
    80000fac:	0141                	addi	sp,sp,16
    80000fae:	8082                	ret
    d += n;
    80000fb0:	96aa                	add	a3,a3,a0
    while(n-- > 0)
    80000fb2:	fff6079b          	addiw	a5,a2,-1
    80000fb6:	1782                	slli	a5,a5,0x20
    80000fb8:	9381                	srli	a5,a5,0x20
    80000fba:	fff7c793          	not	a5,a5
    80000fbe:	97ba                	add	a5,a5,a4
      *--d = *--s;
    80000fc0:	177d                	addi	a4,a4,-1
    80000fc2:	16fd                	addi	a3,a3,-1
    80000fc4:	00074603          	lbu	a2,0(a4)
    80000fc8:	00c68023          	sb	a2,0(a3)
    while(n-- > 0)
    80000fcc:	fef71ae3          	bne	a4,a5,80000fc0 <memmove+0x4e>
    80000fd0:	bfe9                	j	80000faa <memmove+0x38>

0000000080000fd2 <memcpy>:

// memcpy exists to placate GCC.  Use memmove.
void*
memcpy(void *dst, const void *src, uint n)
{
    80000fd2:	1141                	addi	sp,sp,-16
    80000fd4:	e406                	sd	ra,8(sp)
    80000fd6:	e022                	sd	s0,0(sp)
    80000fd8:	0800                	addi	s0,sp,16
  return memmove(dst, src, n);
    80000fda:	00000097          	auipc	ra,0x0
    80000fde:	f98080e7          	jalr	-104(ra) # 80000f72 <memmove>
}
    80000fe2:	60a2                	ld	ra,8(sp)
    80000fe4:	6402                	ld	s0,0(sp)
    80000fe6:	0141                	addi	sp,sp,16
    80000fe8:	8082                	ret

0000000080000fea <strncmp>:

int
strncmp(const char *p, const char *q, uint n)
{
    80000fea:	1141                	addi	sp,sp,-16
    80000fec:	e422                	sd	s0,8(sp)
    80000fee:	0800                	addi	s0,sp,16
  while(n > 0 && *p && *p == *q)
    80000ff0:	ce11                	beqz	a2,8000100c <strncmp+0x22>
    80000ff2:	00054783          	lbu	a5,0(a0)
    80000ff6:	cf89                	beqz	a5,80001010 <strncmp+0x26>
    80000ff8:	0005c703          	lbu	a4,0(a1)
    80000ffc:	00f71a63          	bne	a4,a5,80001010 <strncmp+0x26>
    n--, p++, q++;
    80001000:	367d                	addiw	a2,a2,-1
    80001002:	0505                	addi	a0,a0,1
    80001004:	0585                	addi	a1,a1,1
  while(n > 0 && *p && *p == *q)
    80001006:	f675                	bnez	a2,80000ff2 <strncmp+0x8>
  if(n == 0)
    return 0;
    80001008:	4501                	li	a0,0
    8000100a:	a809                	j	8000101c <strncmp+0x32>
    8000100c:	4501                	li	a0,0
    8000100e:	a039                	j	8000101c <strncmp+0x32>
  if(n == 0)
    80001010:	ca09                	beqz	a2,80001022 <strncmp+0x38>
  return (uchar)*p - (uchar)*q;
    80001012:	00054503          	lbu	a0,0(a0)
    80001016:	0005c783          	lbu	a5,0(a1)
    8000101a:	9d1d                	subw	a0,a0,a5
}
    8000101c:	6422                	ld	s0,8(sp)
    8000101e:	0141                	addi	sp,sp,16
    80001020:	8082                	ret
    return 0;
    80001022:	4501                	li	a0,0
    80001024:	bfe5                	j	8000101c <strncmp+0x32>

0000000080001026 <strncpy>:

char*
strncpy(char *s, const char *t, int n)
{
    80001026:	1141                	addi	sp,sp,-16
    80001028:	e422                	sd	s0,8(sp)
    8000102a:	0800                	addi	s0,sp,16
  char *os;

  os = s;
  while(n-- > 0 && (*s++ = *t++) != 0)
    8000102c:	872a                	mv	a4,a0
    8000102e:	8832                	mv	a6,a2
    80001030:	367d                	addiw	a2,a2,-1
    80001032:	01005963          	blez	a6,80001044 <strncpy+0x1e>
    80001036:	0705                	addi	a4,a4,1
    80001038:	0005c783          	lbu	a5,0(a1)
    8000103c:	fef70fa3          	sb	a5,-1(a4)
    80001040:	0585                	addi	a1,a1,1
    80001042:	f7f5                	bnez	a5,8000102e <strncpy+0x8>
    ;
  while(n-- > 0)
    80001044:	00c05d63          	blez	a2,8000105e <strncpy+0x38>
    80001048:	86ba                	mv	a3,a4
    *s++ = 0;
    8000104a:	0685                	addi	a3,a3,1
    8000104c:	fe068fa3          	sb	zero,-1(a3)
  while(n-- > 0)
    80001050:	fff6c793          	not	a5,a3
    80001054:	9fb9                	addw	a5,a5,a4
    80001056:	010787bb          	addw	a5,a5,a6
    8000105a:	fef048e3          	bgtz	a5,8000104a <strncpy+0x24>
  return os;
}
    8000105e:	6422                	ld	s0,8(sp)
    80001060:	0141                	addi	sp,sp,16
    80001062:	8082                	ret

0000000080001064 <safestrcpy>:

// Like strncpy but guaranteed to NUL-terminate.
char*
safestrcpy(char *s, const char *t, int n)
{
    80001064:	1141                	addi	sp,sp,-16
    80001066:	e422                	sd	s0,8(sp)
    80001068:	0800                	addi	s0,sp,16
  char *os;

  os = s;
  if(n <= 0)
    8000106a:	02c05363          	blez	a2,80001090 <safestrcpy+0x2c>
    8000106e:	fff6069b          	addiw	a3,a2,-1
    80001072:	1682                	slli	a3,a3,0x20
    80001074:	9281                	srli	a3,a3,0x20
    80001076:	96ae                	add	a3,a3,a1
    80001078:	87aa                	mv	a5,a0
    return os;
  while(--n > 0 && (*s++ = *t++) != 0)
    8000107a:	00d58963          	beq	a1,a3,8000108c <safestrcpy+0x28>
    8000107e:	0585                	addi	a1,a1,1
    80001080:	0785                	addi	a5,a5,1
    80001082:	fff5c703          	lbu	a4,-1(a1)
    80001086:	fee78fa3          	sb	a4,-1(a5)
    8000108a:	fb65                	bnez	a4,8000107a <safestrcpy+0x16>
    ;
  *s = 0;
    8000108c:	00078023          	sb	zero,0(a5)
  return os;
}
    80001090:	6422                	ld	s0,8(sp)
    80001092:	0141                	addi	sp,sp,16
    80001094:	8082                	ret

0000000080001096 <strlen>:

int
strlen(const char *s)
{
    80001096:	1141                	addi	sp,sp,-16
    80001098:	e422                	sd	s0,8(sp)
    8000109a:	0800                	addi	s0,sp,16
  int n;

  for(n = 0; s[n]; n++)
    8000109c:	00054783          	lbu	a5,0(a0)
    800010a0:	cf91                	beqz	a5,800010bc <strlen+0x26>
    800010a2:	0505                	addi	a0,a0,1
    800010a4:	87aa                	mv	a5,a0
    800010a6:	4685                	li	a3,1
    800010a8:	9e89                	subw	a3,a3,a0
    800010aa:	00f6853b          	addw	a0,a3,a5
    800010ae:	0785                	addi	a5,a5,1
    800010b0:	fff7c703          	lbu	a4,-1(a5)
    800010b4:	fb7d                	bnez	a4,800010aa <strlen+0x14>
    ;
  return n;
}
    800010b6:	6422                	ld	s0,8(sp)
    800010b8:	0141                	addi	sp,sp,16
    800010ba:	8082                	ret
  for(n = 0; s[n]; n++)
    800010bc:	4501                	li	a0,0
    800010be:	bfe5                	j	800010b6 <strlen+0x20>

00000000800010c0 <main>:
volatile static int started = 0;

// start() jumps here in supervisor mode on all CPUs.
void
main()
{
    800010c0:	1141                	addi	sp,sp,-16
    800010c2:	e406                	sd	ra,8(sp)
    800010c4:	e022                	sd	s0,0(sp)
    800010c6:	0800                	addi	s0,sp,16
  if(cpuid() == 0){
    800010c8:	00001097          	auipc	ra,0x1
    800010cc:	d0e080e7          	jalr	-754(ra) # 80001dd6 <cpuid>
    virtio_disk_init(); // emulated hard disk
    userinit();      // first user process
    __sync_synchronize();
    started = 1;
  } else {
    while(started == 0)
    800010d0:	00009717          	auipc	a4,0x9
    800010d4:	b4870713          	addi	a4,a4,-1208 # 80009c18 <started>
  if(cpuid() == 0){
    800010d8:	c139                	beqz	a0,8000111e <main+0x5e>
    while(started == 0)
    800010da:	431c                	lw	a5,0(a4)
    800010dc:	2781                	sext.w	a5,a5
    800010de:	dff5                	beqz	a5,800010da <main+0x1a>
      ;
    __sync_synchronize();
    800010e0:	0ff0000f          	fence
    printf("hart %d starting\n", cpuid());
    800010e4:	00001097          	auipc	ra,0x1
    800010e8:	cf2080e7          	jalr	-782(ra) # 80001dd6 <cpuid>
    800010ec:	85aa                	mv	a1,a0
    800010ee:	00008517          	auipc	a0,0x8
    800010f2:	00250513          	addi	a0,a0,2 # 800090f0 <digits+0xb0>
    800010f6:	fffff097          	auipc	ra,0xfffff
    800010fa:	498080e7          	jalr	1176(ra) # 8000058e <printf>
    kvminithart();    // turn on paging
    800010fe:	00000097          	auipc	ra,0x0
    80001102:	0d8080e7          	jalr	216(ra) # 800011d6 <kvminithart>
    trapinithart();   // install kernel trap vector
    80001106:	00002097          	auipc	ra,0x2
    8000110a:	234080e7          	jalr	564(ra) # 8000333a <trapinithart>
    plicinithart();   // ask PLIC for device interrupts
    8000110e:	00006097          	auipc	ra,0x6
    80001112:	c22080e7          	jalr	-990(ra) # 80006d30 <plicinithart>
  }

  scheduler();        
    80001116:	00001097          	auipc	ra,0x1
    8000111a:	4aa080e7          	jalr	1194(ra) # 800025c0 <scheduler>
    consoleinit();
    8000111e:	fffff097          	auipc	ra,0xfffff
    80001122:	338080e7          	jalr	824(ra) # 80000456 <consoleinit>
    printfinit();
    80001126:	fffff097          	auipc	ra,0xfffff
    8000112a:	64e080e7          	jalr	1614(ra) # 80000774 <printfinit>
    printf("\n");
    8000112e:	00008517          	auipc	a0,0x8
    80001132:	1da50513          	addi	a0,a0,474 # 80009308 <digits+0x2c8>
    80001136:	fffff097          	auipc	ra,0xfffff
    8000113a:	458080e7          	jalr	1112(ra) # 8000058e <printf>
    printf("xv6 kernel is booting\n");
    8000113e:	00008517          	auipc	a0,0x8
    80001142:	f9a50513          	addi	a0,a0,-102 # 800090d8 <digits+0x98>
    80001146:	fffff097          	auipc	ra,0xfffff
    8000114a:	448080e7          	jalr	1096(ra) # 8000058e <printf>
    printf("\n");
    8000114e:	00008517          	auipc	a0,0x8
    80001152:	1ba50513          	addi	a0,a0,442 # 80009308 <digits+0x2c8>
    80001156:	fffff097          	auipc	ra,0xfffff
    8000115a:	438080e7          	jalr	1080(ra) # 8000058e <printf>
    kinit();         // physical page allocator
    8000115e:	00000097          	auipc	ra,0x0
    80001162:	b78080e7          	jalr	-1160(ra) # 80000cd6 <kinit>
    kvminit();       // create kernel page table
    80001166:	00000097          	auipc	ra,0x0
    8000116a:	326080e7          	jalr	806(ra) # 8000148c <kvminit>
    kvminithart();   // turn on paging
    8000116e:	00000097          	auipc	ra,0x0
    80001172:	068080e7          	jalr	104(ra) # 800011d6 <kvminithart>
    procinit();      // process table
    80001176:	00001097          	auipc	ra,0x1
    8000117a:	bac080e7          	jalr	-1108(ra) # 80001d22 <procinit>
    trapinit();      // trap vectors
    8000117e:	00002097          	auipc	ra,0x2
    80001182:	194080e7          	jalr	404(ra) # 80003312 <trapinit>
    trapinithart();  // install kernel trap vector
    80001186:	00002097          	auipc	ra,0x2
    8000118a:	1b4080e7          	jalr	436(ra) # 8000333a <trapinithart>
    plicinit();      // set up interrupt controller
    8000118e:	00006097          	auipc	ra,0x6
    80001192:	b8c080e7          	jalr	-1140(ra) # 80006d1a <plicinit>
    plicinithart();  // ask PLIC for device interrupts
    80001196:	00006097          	auipc	ra,0x6
    8000119a:	b9a080e7          	jalr	-1126(ra) # 80006d30 <plicinithart>
    binit();         // buffer cache
    8000119e:	00003097          	auipc	ra,0x3
    800011a2:	d54080e7          	jalr	-684(ra) # 80003ef2 <binit>
    iinit();         // inode table
    800011a6:	00003097          	auipc	ra,0x3
    800011aa:	3f8080e7          	jalr	1016(ra) # 8000459e <iinit>
    fileinit();      // file table
    800011ae:	00004097          	auipc	ra,0x4
    800011b2:	396080e7          	jalr	918(ra) # 80005544 <fileinit>
    virtio_disk_init(); // emulated hard disk
    800011b6:	00006097          	auipc	ra,0x6
    800011ba:	c82080e7          	jalr	-894(ra) # 80006e38 <virtio_disk_init>
    userinit();      // first user process
    800011be:	00001097          	auipc	ra,0x1
    800011c2:	0e8080e7          	jalr	232(ra) # 800022a6 <userinit>
    __sync_synchronize();
    800011c6:	0ff0000f          	fence
    started = 1;
    800011ca:	4785                	li	a5,1
    800011cc:	00009717          	auipc	a4,0x9
    800011d0:	a4f72623          	sw	a5,-1460(a4) # 80009c18 <started>
    800011d4:	b789                	j	80001116 <main+0x56>

00000000800011d6 <kvminithart>:
}

// Switch h/w page table register to the kernel's page table,
// and enable paging.
void kvminithart()
{
    800011d6:	1141                	addi	sp,sp,-16
    800011d8:	e422                	sd	s0,8(sp)
    800011da:	0800                	addi	s0,sp,16
// flush the TLB.
static inline void
sfence_vma()
{
  // the zero, zero means flush all TLB entries.
  asm volatile("sfence.vma zero, zero");
    800011dc:	12000073          	sfence.vma
  // wait for any previous writes to the page table memory to finish.
  sfence_vma();

  w_satp(MAKE_SATP(kernel_pagetable));
    800011e0:	00009797          	auipc	a5,0x9
    800011e4:	a407b783          	ld	a5,-1472(a5) # 80009c20 <kernel_pagetable>
    800011e8:	83b1                	srli	a5,a5,0xc
    800011ea:	577d                	li	a4,-1
    800011ec:	177e                	slli	a4,a4,0x3f
    800011ee:	8fd9                	or	a5,a5,a4
  asm volatile("csrw satp, %0" : : "r" (x));
    800011f0:	18079073          	csrw	satp,a5
  asm volatile("sfence.vma zero, zero");
    800011f4:	12000073          	sfence.vma

  // flush stale entries from the TLB.
  sfence_vma();
}
    800011f8:	6422                	ld	s0,8(sp)
    800011fa:	0141                	addi	sp,sp,16
    800011fc:	8082                	ret

00000000800011fe <walk>:
//   21..29 -- 9 bits of level-1 index.
//   12..20 -- 9 bits of level-0 index.
//    0..11 -- 12 bits of byte offset within the page.
pte_t *
walk(pagetable_t pagetable, uint64 va, int alloc)
{
    800011fe:	7139                	addi	sp,sp,-64
    80001200:	fc06                	sd	ra,56(sp)
    80001202:	f822                	sd	s0,48(sp)
    80001204:	f426                	sd	s1,40(sp)
    80001206:	f04a                	sd	s2,32(sp)
    80001208:	ec4e                	sd	s3,24(sp)
    8000120a:	e852                	sd	s4,16(sp)
    8000120c:	e456                	sd	s5,8(sp)
    8000120e:	e05a                	sd	s6,0(sp)
    80001210:	0080                	addi	s0,sp,64
    80001212:	84aa                	mv	s1,a0
    80001214:	89ae                	mv	s3,a1
    80001216:	8ab2                	mv	s5,a2
  if (va >= MAXVA)
    80001218:	57fd                	li	a5,-1
    8000121a:	83e9                	srli	a5,a5,0x1a
    8000121c:	4a79                	li	s4,30
    panic("walk");

  for (int level = 2; level > 0; level--)
    8000121e:	4b31                	li	s6,12
  if (va >= MAXVA)
    80001220:	04b7f263          	bgeu	a5,a1,80001264 <walk+0x66>
    panic("walk");
    80001224:	00008517          	auipc	a0,0x8
    80001228:	ee450513          	addi	a0,a0,-284 # 80009108 <digits+0xc8>
    8000122c:	fffff097          	auipc	ra,0xfffff
    80001230:	318080e7          	jalr	792(ra) # 80000544 <panic>
    {
      pagetable = (pagetable_t)PTE2PA(*pte);
    }
    else
    {
      if (!alloc || (pagetable = (pde_t *)kalloc()) == 0)
    80001234:	060a8663          	beqz	s5,800012a0 <walk+0xa2>
    80001238:	00000097          	auipc	ra,0x0
    8000123c:	ae2080e7          	jalr	-1310(ra) # 80000d1a <kalloc>
    80001240:	84aa                	mv	s1,a0
    80001242:	c529                	beqz	a0,8000128c <walk+0x8e>
        return 0;
      memset(pagetable, 0, PGSIZE);
    80001244:	6605                	lui	a2,0x1
    80001246:	4581                	li	a1,0
    80001248:	00000097          	auipc	ra,0x0
    8000124c:	cca080e7          	jalr	-822(ra) # 80000f12 <memset>
      *pte = PA2PTE(pagetable) | PTE_V;
    80001250:	00c4d793          	srli	a5,s1,0xc
    80001254:	07aa                	slli	a5,a5,0xa
    80001256:	0017e793          	ori	a5,a5,1
    8000125a:	00f93023          	sd	a5,0(s2)
  for (int level = 2; level > 0; level--)
    8000125e:	3a5d                	addiw	s4,s4,-9
    80001260:	036a0063          	beq	s4,s6,80001280 <walk+0x82>
    pte_t *pte = &pagetable[PX(level, va)];
    80001264:	0149d933          	srl	s2,s3,s4
    80001268:	1ff97913          	andi	s2,s2,511
    8000126c:	090e                	slli	s2,s2,0x3
    8000126e:	9926                	add	s2,s2,s1
    if (*pte & PTE_V)
    80001270:	00093483          	ld	s1,0(s2)
    80001274:	0014f793          	andi	a5,s1,1
    80001278:	dfd5                	beqz	a5,80001234 <walk+0x36>
      pagetable = (pagetable_t)PTE2PA(*pte);
    8000127a:	80a9                	srli	s1,s1,0xa
    8000127c:	04b2                	slli	s1,s1,0xc
    8000127e:	b7c5                	j	8000125e <walk+0x60>
    }
  }
  return &pagetable[PX(0, va)];
    80001280:	00c9d513          	srli	a0,s3,0xc
    80001284:	1ff57513          	andi	a0,a0,511
    80001288:	050e                	slli	a0,a0,0x3
    8000128a:	9526                	add	a0,a0,s1
}
    8000128c:	70e2                	ld	ra,56(sp)
    8000128e:	7442                	ld	s0,48(sp)
    80001290:	74a2                	ld	s1,40(sp)
    80001292:	7902                	ld	s2,32(sp)
    80001294:	69e2                	ld	s3,24(sp)
    80001296:	6a42                	ld	s4,16(sp)
    80001298:	6aa2                	ld	s5,8(sp)
    8000129a:	6b02                	ld	s6,0(sp)
    8000129c:	6121                	addi	sp,sp,64
    8000129e:	8082                	ret
        return 0;
    800012a0:	4501                	li	a0,0
    800012a2:	b7ed                	j	8000128c <walk+0x8e>

00000000800012a4 <walkaddr>:
walkaddr(pagetable_t pagetable, uint64 va)
{
  pte_t *pte;
  uint64 pa;

  if (va >= MAXVA)
    800012a4:	57fd                	li	a5,-1
    800012a6:	83e9                	srli	a5,a5,0x1a
    800012a8:	00b7f463          	bgeu	a5,a1,800012b0 <walkaddr+0xc>
    return 0;
    800012ac:	4501                	li	a0,0
    return 0;
  if ((*pte & PTE_U) == 0)
    return 0;
  pa = PTE2PA(*pte);
  return pa;
}
    800012ae:	8082                	ret
{
    800012b0:	1141                	addi	sp,sp,-16
    800012b2:	e406                	sd	ra,8(sp)
    800012b4:	e022                	sd	s0,0(sp)
    800012b6:	0800                	addi	s0,sp,16
  pte = walk(pagetable, va, 0);
    800012b8:	4601                	li	a2,0
    800012ba:	00000097          	auipc	ra,0x0
    800012be:	f44080e7          	jalr	-188(ra) # 800011fe <walk>
  if (pte == 0)
    800012c2:	c105                	beqz	a0,800012e2 <walkaddr+0x3e>
  if ((*pte & PTE_V) == 0)
    800012c4:	611c                	ld	a5,0(a0)
  if ((*pte & PTE_U) == 0)
    800012c6:	0117f693          	andi	a3,a5,17
    800012ca:	4745                	li	a4,17
    return 0;
    800012cc:	4501                	li	a0,0
  if ((*pte & PTE_U) == 0)
    800012ce:	00e68663          	beq	a3,a4,800012da <walkaddr+0x36>
}
    800012d2:	60a2                	ld	ra,8(sp)
    800012d4:	6402                	ld	s0,0(sp)
    800012d6:	0141                	addi	sp,sp,16
    800012d8:	8082                	ret
  pa = PTE2PA(*pte);
    800012da:	00a7d513          	srli	a0,a5,0xa
    800012de:	0532                	slli	a0,a0,0xc
  return pa;
    800012e0:	bfcd                	j	800012d2 <walkaddr+0x2e>
    return 0;
    800012e2:	4501                	li	a0,0
    800012e4:	b7fd                	j	800012d2 <walkaddr+0x2e>

00000000800012e6 <mappages>:
// Create PTEs for virtual addresses starting at va that refer to
// physical addresses starting at pa. va and size might not
// be page-aligned. Returns 0 on success, -1 if walk() couldn't
// allocate a needed page-table page.
int mappages(pagetable_t pagetable, uint64 va, uint64 size, uint64 pa, int perm)
{
    800012e6:	715d                	addi	sp,sp,-80
    800012e8:	e486                	sd	ra,72(sp)
    800012ea:	e0a2                	sd	s0,64(sp)
    800012ec:	fc26                	sd	s1,56(sp)
    800012ee:	f84a                	sd	s2,48(sp)
    800012f0:	f44e                	sd	s3,40(sp)
    800012f2:	f052                	sd	s4,32(sp)
    800012f4:	ec56                	sd	s5,24(sp)
    800012f6:	e85a                	sd	s6,16(sp)
    800012f8:	e45e                	sd	s7,8(sp)
    800012fa:	0880                	addi	s0,sp,80
  uint64 a, last;
  pte_t *pte;

  if (size == 0)
    800012fc:	c205                	beqz	a2,8000131c <mappages+0x36>
    800012fe:	8aaa                	mv	s5,a0
    80001300:	8b3a                	mv	s6,a4
    panic("mappages: size");

  a = PGROUNDDOWN(va);
    80001302:	77fd                	lui	a5,0xfffff
    80001304:	00f5fa33          	and	s4,a1,a5
  last = PGROUNDDOWN(va + size - 1);
    80001308:	15fd                	addi	a1,a1,-1
    8000130a:	00c589b3          	add	s3,a1,a2
    8000130e:	00f9f9b3          	and	s3,s3,a5
  a = PGROUNDDOWN(va);
    80001312:	8952                	mv	s2,s4
    80001314:	41468a33          	sub	s4,a3,s4
    if (*pte & PTE_V)
      panic("mappages: remap");
    *pte = PA2PTE(pa) | perm | PTE_V;
    if (a == last)
      break;
    a += PGSIZE;
    80001318:	6b85                	lui	s7,0x1
    8000131a:	a015                	j	8000133e <mappages+0x58>
    panic("mappages: size");
    8000131c:	00008517          	auipc	a0,0x8
    80001320:	df450513          	addi	a0,a0,-524 # 80009110 <digits+0xd0>
    80001324:	fffff097          	auipc	ra,0xfffff
    80001328:	220080e7          	jalr	544(ra) # 80000544 <panic>
      panic("mappages: remap");
    8000132c:	00008517          	auipc	a0,0x8
    80001330:	df450513          	addi	a0,a0,-524 # 80009120 <digits+0xe0>
    80001334:	fffff097          	auipc	ra,0xfffff
    80001338:	210080e7          	jalr	528(ra) # 80000544 <panic>
    a += PGSIZE;
    8000133c:	995e                	add	s2,s2,s7
  for (;;)
    8000133e:	012a04b3          	add	s1,s4,s2
    if ((pte = walk(pagetable, a, 1)) == 0)
    80001342:	4605                	li	a2,1
    80001344:	85ca                	mv	a1,s2
    80001346:	8556                	mv	a0,s5
    80001348:	00000097          	auipc	ra,0x0
    8000134c:	eb6080e7          	jalr	-330(ra) # 800011fe <walk>
    80001350:	cd19                	beqz	a0,8000136e <mappages+0x88>
    if (*pte & PTE_V)
    80001352:	611c                	ld	a5,0(a0)
    80001354:	8b85                	andi	a5,a5,1
    80001356:	fbf9                	bnez	a5,8000132c <mappages+0x46>
    *pte = PA2PTE(pa) | perm | PTE_V;
    80001358:	80b1                	srli	s1,s1,0xc
    8000135a:	04aa                	slli	s1,s1,0xa
    8000135c:	0164e4b3          	or	s1,s1,s6
    80001360:	0014e493          	ori	s1,s1,1
    80001364:	e104                	sd	s1,0(a0)
    if (a == last)
    80001366:	fd391be3          	bne	s2,s3,8000133c <mappages+0x56>
    pa += PGSIZE;
  }
  return 0;
    8000136a:	4501                	li	a0,0
    8000136c:	a011                	j	80001370 <mappages+0x8a>
      return -1;
    8000136e:	557d                	li	a0,-1
}
    80001370:	60a6                	ld	ra,72(sp)
    80001372:	6406                	ld	s0,64(sp)
    80001374:	74e2                	ld	s1,56(sp)
    80001376:	7942                	ld	s2,48(sp)
    80001378:	79a2                	ld	s3,40(sp)
    8000137a:	7a02                	ld	s4,32(sp)
    8000137c:	6ae2                	ld	s5,24(sp)
    8000137e:	6b42                	ld	s6,16(sp)
    80001380:	6ba2                	ld	s7,8(sp)
    80001382:	6161                	addi	sp,sp,80
    80001384:	8082                	ret

0000000080001386 <kvmmap>:
{
    80001386:	1141                	addi	sp,sp,-16
    80001388:	e406                	sd	ra,8(sp)
    8000138a:	e022                	sd	s0,0(sp)
    8000138c:	0800                	addi	s0,sp,16
    8000138e:	87b6                	mv	a5,a3
  if (mappages(kpgtbl, va, sz, pa, perm) != 0)
    80001390:	86b2                	mv	a3,a2
    80001392:	863e                	mv	a2,a5
    80001394:	00000097          	auipc	ra,0x0
    80001398:	f52080e7          	jalr	-174(ra) # 800012e6 <mappages>
    8000139c:	e509                	bnez	a0,800013a6 <kvmmap+0x20>
}
    8000139e:	60a2                	ld	ra,8(sp)
    800013a0:	6402                	ld	s0,0(sp)
    800013a2:	0141                	addi	sp,sp,16
    800013a4:	8082                	ret
    panic("kvmmap");
    800013a6:	00008517          	auipc	a0,0x8
    800013aa:	d8a50513          	addi	a0,a0,-630 # 80009130 <digits+0xf0>
    800013ae:	fffff097          	auipc	ra,0xfffff
    800013b2:	196080e7          	jalr	406(ra) # 80000544 <panic>

00000000800013b6 <kvmmake>:
{
    800013b6:	1101                	addi	sp,sp,-32
    800013b8:	ec06                	sd	ra,24(sp)
    800013ba:	e822                	sd	s0,16(sp)
    800013bc:	e426                	sd	s1,8(sp)
    800013be:	e04a                	sd	s2,0(sp)
    800013c0:	1000                	addi	s0,sp,32
  kpgtbl = (pagetable_t)kalloc();
    800013c2:	00000097          	auipc	ra,0x0
    800013c6:	958080e7          	jalr	-1704(ra) # 80000d1a <kalloc>
    800013ca:	84aa                	mv	s1,a0
  memset(kpgtbl, 0, PGSIZE);
    800013cc:	6605                	lui	a2,0x1
    800013ce:	4581                	li	a1,0
    800013d0:	00000097          	auipc	ra,0x0
    800013d4:	b42080e7          	jalr	-1214(ra) # 80000f12 <memset>
  kvmmap(kpgtbl, UART0, UART0, PGSIZE, PTE_R | PTE_W);
    800013d8:	4719                	li	a4,6
    800013da:	6685                	lui	a3,0x1
    800013dc:	10000637          	lui	a2,0x10000
    800013e0:	100005b7          	lui	a1,0x10000
    800013e4:	8526                	mv	a0,s1
    800013e6:	00000097          	auipc	ra,0x0
    800013ea:	fa0080e7          	jalr	-96(ra) # 80001386 <kvmmap>
  kvmmap(kpgtbl, VIRTIO0, VIRTIO0, PGSIZE, PTE_R | PTE_W);
    800013ee:	4719                	li	a4,6
    800013f0:	6685                	lui	a3,0x1
    800013f2:	10001637          	lui	a2,0x10001
    800013f6:	100015b7          	lui	a1,0x10001
    800013fa:	8526                	mv	a0,s1
    800013fc:	00000097          	auipc	ra,0x0
    80001400:	f8a080e7          	jalr	-118(ra) # 80001386 <kvmmap>
  kvmmap(kpgtbl, PLIC, PLIC, 0x400000, PTE_R | PTE_W);
    80001404:	4719                	li	a4,6
    80001406:	004006b7          	lui	a3,0x400
    8000140a:	0c000637          	lui	a2,0xc000
    8000140e:	0c0005b7          	lui	a1,0xc000
    80001412:	8526                	mv	a0,s1
    80001414:	00000097          	auipc	ra,0x0
    80001418:	f72080e7          	jalr	-142(ra) # 80001386 <kvmmap>
  kvmmap(kpgtbl, KERNBASE, KERNBASE, (uint64)etext - KERNBASE, PTE_R | PTE_X);
    8000141c:	00008917          	auipc	s2,0x8
    80001420:	be490913          	addi	s2,s2,-1052 # 80009000 <etext>
    80001424:	4729                	li	a4,10
    80001426:	80008697          	auipc	a3,0x80008
    8000142a:	bda68693          	addi	a3,a3,-1062 # 9000 <_entry-0x7fff7000>
    8000142e:	4605                	li	a2,1
    80001430:	067e                	slli	a2,a2,0x1f
    80001432:	85b2                	mv	a1,a2
    80001434:	8526                	mv	a0,s1
    80001436:	00000097          	auipc	ra,0x0
    8000143a:	f50080e7          	jalr	-176(ra) # 80001386 <kvmmap>
  kvmmap(kpgtbl, (uint64)etext, (uint64)etext, PHYSTOP - (uint64)etext, PTE_R | PTE_W);
    8000143e:	4719                	li	a4,6
    80001440:	46c5                	li	a3,17
    80001442:	06ee                	slli	a3,a3,0x1b
    80001444:	412686b3          	sub	a3,a3,s2
    80001448:	864a                	mv	a2,s2
    8000144a:	85ca                	mv	a1,s2
    8000144c:	8526                	mv	a0,s1
    8000144e:	00000097          	auipc	ra,0x0
    80001452:	f38080e7          	jalr	-200(ra) # 80001386 <kvmmap>
  kvmmap(kpgtbl, TRAMPOLINE, (uint64)trampoline, PGSIZE, PTE_R | PTE_X);
    80001456:	4729                	li	a4,10
    80001458:	6685                	lui	a3,0x1
    8000145a:	00007617          	auipc	a2,0x7
    8000145e:	ba660613          	addi	a2,a2,-1114 # 80008000 <_trampoline>
    80001462:	040005b7          	lui	a1,0x4000
    80001466:	15fd                	addi	a1,a1,-1
    80001468:	05b2                	slli	a1,a1,0xc
    8000146a:	8526                	mv	a0,s1
    8000146c:	00000097          	auipc	ra,0x0
    80001470:	f1a080e7          	jalr	-230(ra) # 80001386 <kvmmap>
  proc_mapstacks(kpgtbl);
    80001474:	8526                	mv	a0,s1
    80001476:	00001097          	auipc	ra,0x1
    8000147a:	816080e7          	jalr	-2026(ra) # 80001c8c <proc_mapstacks>
}
    8000147e:	8526                	mv	a0,s1
    80001480:	60e2                	ld	ra,24(sp)
    80001482:	6442                	ld	s0,16(sp)
    80001484:	64a2                	ld	s1,8(sp)
    80001486:	6902                	ld	s2,0(sp)
    80001488:	6105                	addi	sp,sp,32
    8000148a:	8082                	ret

000000008000148c <kvminit>:
{
    8000148c:	1141                	addi	sp,sp,-16
    8000148e:	e406                	sd	ra,8(sp)
    80001490:	e022                	sd	s0,0(sp)
    80001492:	0800                	addi	s0,sp,16
  kernel_pagetable = kvmmake();
    80001494:	00000097          	auipc	ra,0x0
    80001498:	f22080e7          	jalr	-222(ra) # 800013b6 <kvmmake>
    8000149c:	00008797          	auipc	a5,0x8
    800014a0:	78a7b223          	sd	a0,1924(a5) # 80009c20 <kernel_pagetable>
}
    800014a4:	60a2                	ld	ra,8(sp)
    800014a6:	6402                	ld	s0,0(sp)
    800014a8:	0141                	addi	sp,sp,16
    800014aa:	8082                	ret

00000000800014ac <uvmunmap>:

// Remove npages of mappings starting from va. va must be
// page-aligned. The mappings must exist.
// Optionally free the physical memory.
void uvmunmap(pagetable_t pagetable, uint64 va, uint64 npages, int do_free)
{
    800014ac:	715d                	addi	sp,sp,-80
    800014ae:	e486                	sd	ra,72(sp)
    800014b0:	e0a2                	sd	s0,64(sp)
    800014b2:	fc26                	sd	s1,56(sp)
    800014b4:	f84a                	sd	s2,48(sp)
    800014b6:	f44e                	sd	s3,40(sp)
    800014b8:	f052                	sd	s4,32(sp)
    800014ba:	ec56                	sd	s5,24(sp)
    800014bc:	e85a                	sd	s6,16(sp)
    800014be:	e45e                	sd	s7,8(sp)
    800014c0:	0880                	addi	s0,sp,80
  uint64 a;
  pte_t *pte;

  if ((va % PGSIZE) != 0)
    800014c2:	03459793          	slli	a5,a1,0x34
    800014c6:	e795                	bnez	a5,800014f2 <uvmunmap+0x46>
    800014c8:	8a2a                	mv	s4,a0
    800014ca:	892e                	mv	s2,a1
    800014cc:	8ab6                	mv	s5,a3
    panic("uvmunmap: not aligned");

  for (a = va; a < va + npages * PGSIZE; a += PGSIZE)
    800014ce:	0632                	slli	a2,a2,0xc
    800014d0:	00b609b3          	add	s3,a2,a1
  {
    if ((pte = walk(pagetable, a, 0)) == 0)
      panic("uvmunmap: walk");
    if ((*pte & PTE_V) == 0)
      panic("uvmunmap: not mapped");
    if (PTE_FLAGS(*pte) == PTE_V)
    800014d4:	4b85                	li	s7,1
  for (a = va; a < va + npages * PGSIZE; a += PGSIZE)
    800014d6:	6b05                	lui	s6,0x1
    800014d8:	0735e863          	bltu	a1,s3,80001548 <uvmunmap+0x9c>
      uint64 pa = PTE2PA(*pte);
      kfree((void *)pa);
    }
    *pte = 0;
  }
}
    800014dc:	60a6                	ld	ra,72(sp)
    800014de:	6406                	ld	s0,64(sp)
    800014e0:	74e2                	ld	s1,56(sp)
    800014e2:	7942                	ld	s2,48(sp)
    800014e4:	79a2                	ld	s3,40(sp)
    800014e6:	7a02                	ld	s4,32(sp)
    800014e8:	6ae2                	ld	s5,24(sp)
    800014ea:	6b42                	ld	s6,16(sp)
    800014ec:	6ba2                	ld	s7,8(sp)
    800014ee:	6161                	addi	sp,sp,80
    800014f0:	8082                	ret
    panic("uvmunmap: not aligned");
    800014f2:	00008517          	auipc	a0,0x8
    800014f6:	c4650513          	addi	a0,a0,-954 # 80009138 <digits+0xf8>
    800014fa:	fffff097          	auipc	ra,0xfffff
    800014fe:	04a080e7          	jalr	74(ra) # 80000544 <panic>
      panic("uvmunmap: walk");
    80001502:	00008517          	auipc	a0,0x8
    80001506:	c4e50513          	addi	a0,a0,-946 # 80009150 <digits+0x110>
    8000150a:	fffff097          	auipc	ra,0xfffff
    8000150e:	03a080e7          	jalr	58(ra) # 80000544 <panic>
      panic("uvmunmap: not mapped");
    80001512:	00008517          	auipc	a0,0x8
    80001516:	c4e50513          	addi	a0,a0,-946 # 80009160 <digits+0x120>
    8000151a:	fffff097          	auipc	ra,0xfffff
    8000151e:	02a080e7          	jalr	42(ra) # 80000544 <panic>
      panic("uvmunmap: not a leaf");
    80001522:	00008517          	auipc	a0,0x8
    80001526:	c5650513          	addi	a0,a0,-938 # 80009178 <digits+0x138>
    8000152a:	fffff097          	auipc	ra,0xfffff
    8000152e:	01a080e7          	jalr	26(ra) # 80000544 <panic>
      uint64 pa = PTE2PA(*pte);
    80001532:	8129                	srli	a0,a0,0xa
      kfree((void *)pa);
    80001534:	0532                	slli	a0,a0,0xc
    80001536:	fffff097          	auipc	ra,0xfffff
    8000153a:	65c080e7          	jalr	1628(ra) # 80000b92 <kfree>
    *pte = 0;
    8000153e:	0004b023          	sd	zero,0(s1)
  for (a = va; a < va + npages * PGSIZE; a += PGSIZE)
    80001542:	995a                	add	s2,s2,s6
    80001544:	f9397ce3          	bgeu	s2,s3,800014dc <uvmunmap+0x30>
    if ((pte = walk(pagetable, a, 0)) == 0)
    80001548:	4601                	li	a2,0
    8000154a:	85ca                	mv	a1,s2
    8000154c:	8552                	mv	a0,s4
    8000154e:	00000097          	auipc	ra,0x0
    80001552:	cb0080e7          	jalr	-848(ra) # 800011fe <walk>
    80001556:	84aa                	mv	s1,a0
    80001558:	d54d                	beqz	a0,80001502 <uvmunmap+0x56>
    if ((*pte & PTE_V) == 0)
    8000155a:	6108                	ld	a0,0(a0)
    8000155c:	00157793          	andi	a5,a0,1
    80001560:	dbcd                	beqz	a5,80001512 <uvmunmap+0x66>
    if (PTE_FLAGS(*pte) == PTE_V)
    80001562:	3ff57793          	andi	a5,a0,1023
    80001566:	fb778ee3          	beq	a5,s7,80001522 <uvmunmap+0x76>
    if (do_free)
    8000156a:	fc0a8ae3          	beqz	s5,8000153e <uvmunmap+0x92>
    8000156e:	b7d1                	j	80001532 <uvmunmap+0x86>

0000000080001570 <uvmcreate>:

// create an empty user page table.
// returns 0 if out of memory.
pagetable_t
uvmcreate()
{
    80001570:	1101                	addi	sp,sp,-32
    80001572:	ec06                	sd	ra,24(sp)
    80001574:	e822                	sd	s0,16(sp)
    80001576:	e426                	sd	s1,8(sp)
    80001578:	1000                	addi	s0,sp,32
  pagetable_t pagetable;
  pagetable = (pagetable_t)kalloc();
    8000157a:	fffff097          	auipc	ra,0xfffff
    8000157e:	7a0080e7          	jalr	1952(ra) # 80000d1a <kalloc>
    80001582:	84aa                	mv	s1,a0
  if (pagetable == 0)
    80001584:	c519                	beqz	a0,80001592 <uvmcreate+0x22>
    return 0;
  memset(pagetable, 0, PGSIZE);
    80001586:	6605                	lui	a2,0x1
    80001588:	4581                	li	a1,0
    8000158a:	00000097          	auipc	ra,0x0
    8000158e:	988080e7          	jalr	-1656(ra) # 80000f12 <memset>
  return pagetable;
}
    80001592:	8526                	mv	a0,s1
    80001594:	60e2                	ld	ra,24(sp)
    80001596:	6442                	ld	s0,16(sp)
    80001598:	64a2                	ld	s1,8(sp)
    8000159a:	6105                	addi	sp,sp,32
    8000159c:	8082                	ret

000000008000159e <uvmfirst>:

// Load the user initcode into address 0 of pagetable,
// for the very first process.
// sz must be less than a page.
void uvmfirst(pagetable_t pagetable, uchar *src, uint sz)
{
    8000159e:	7179                	addi	sp,sp,-48
    800015a0:	f406                	sd	ra,40(sp)
    800015a2:	f022                	sd	s0,32(sp)
    800015a4:	ec26                	sd	s1,24(sp)
    800015a6:	e84a                	sd	s2,16(sp)
    800015a8:	e44e                	sd	s3,8(sp)
    800015aa:	e052                	sd	s4,0(sp)
    800015ac:	1800                	addi	s0,sp,48
  char *mem;

  if (sz >= PGSIZE)
    800015ae:	6785                	lui	a5,0x1
    800015b0:	04f67863          	bgeu	a2,a5,80001600 <uvmfirst+0x62>
    800015b4:	8a2a                	mv	s4,a0
    800015b6:	89ae                	mv	s3,a1
    800015b8:	84b2                	mv	s1,a2
    panic("uvmfirst: more than a page");
  mem = kalloc();
    800015ba:	fffff097          	auipc	ra,0xfffff
    800015be:	760080e7          	jalr	1888(ra) # 80000d1a <kalloc>
    800015c2:	892a                	mv	s2,a0
  memset(mem, 0, PGSIZE);
    800015c4:	6605                	lui	a2,0x1
    800015c6:	4581                	li	a1,0
    800015c8:	00000097          	auipc	ra,0x0
    800015cc:	94a080e7          	jalr	-1718(ra) # 80000f12 <memset>
  mappages(pagetable, 0, PGSIZE, (uint64)mem, PTE_W | PTE_R | PTE_X | PTE_U);
    800015d0:	4779                	li	a4,30
    800015d2:	86ca                	mv	a3,s2
    800015d4:	6605                	lui	a2,0x1
    800015d6:	4581                	li	a1,0
    800015d8:	8552                	mv	a0,s4
    800015da:	00000097          	auipc	ra,0x0
    800015de:	d0c080e7          	jalr	-756(ra) # 800012e6 <mappages>
  memmove(mem, src, sz);
    800015e2:	8626                	mv	a2,s1
    800015e4:	85ce                	mv	a1,s3
    800015e6:	854a                	mv	a0,s2
    800015e8:	00000097          	auipc	ra,0x0
    800015ec:	98a080e7          	jalr	-1654(ra) # 80000f72 <memmove>
}
    800015f0:	70a2                	ld	ra,40(sp)
    800015f2:	7402                	ld	s0,32(sp)
    800015f4:	64e2                	ld	s1,24(sp)
    800015f6:	6942                	ld	s2,16(sp)
    800015f8:	69a2                	ld	s3,8(sp)
    800015fa:	6a02                	ld	s4,0(sp)
    800015fc:	6145                	addi	sp,sp,48
    800015fe:	8082                	ret
    panic("uvmfirst: more than a page");
    80001600:	00008517          	auipc	a0,0x8
    80001604:	b9050513          	addi	a0,a0,-1136 # 80009190 <digits+0x150>
    80001608:	fffff097          	auipc	ra,0xfffff
    8000160c:	f3c080e7          	jalr	-196(ra) # 80000544 <panic>

0000000080001610 <uvmdealloc>:
// newsz.  oldsz and newsz need not be page-aligned, nor does newsz
// need to be less than oldsz.  oldsz can be larger than the actual
// process size.  Returns the new process size.
uint64
uvmdealloc(pagetable_t pagetable, uint64 oldsz, uint64 newsz)
{
    80001610:	1101                	addi	sp,sp,-32
    80001612:	ec06                	sd	ra,24(sp)
    80001614:	e822                	sd	s0,16(sp)
    80001616:	e426                	sd	s1,8(sp)
    80001618:	1000                	addi	s0,sp,32
  if (newsz >= oldsz)
    return oldsz;
    8000161a:	84ae                	mv	s1,a1
  if (newsz >= oldsz)
    8000161c:	00b67d63          	bgeu	a2,a1,80001636 <uvmdealloc+0x26>
    80001620:	84b2                	mv	s1,a2

  if (PGROUNDUP(newsz) < PGROUNDUP(oldsz))
    80001622:	6785                	lui	a5,0x1
    80001624:	17fd                	addi	a5,a5,-1
    80001626:	00f60733          	add	a4,a2,a5
    8000162a:	767d                	lui	a2,0xfffff
    8000162c:	8f71                	and	a4,a4,a2
    8000162e:	97ae                	add	a5,a5,a1
    80001630:	8ff1                	and	a5,a5,a2
    80001632:	00f76863          	bltu	a4,a5,80001642 <uvmdealloc+0x32>
    int npages = (PGROUNDUP(oldsz) - PGROUNDUP(newsz)) / PGSIZE;
    uvmunmap(pagetable, PGROUNDUP(newsz), npages, 1);
  }

  return newsz;
}
    80001636:	8526                	mv	a0,s1
    80001638:	60e2                	ld	ra,24(sp)
    8000163a:	6442                	ld	s0,16(sp)
    8000163c:	64a2                	ld	s1,8(sp)
    8000163e:	6105                	addi	sp,sp,32
    80001640:	8082                	ret
    int npages = (PGROUNDUP(oldsz) - PGROUNDUP(newsz)) / PGSIZE;
    80001642:	8f99                	sub	a5,a5,a4
    80001644:	83b1                	srli	a5,a5,0xc
    uvmunmap(pagetable, PGROUNDUP(newsz), npages, 1);
    80001646:	4685                	li	a3,1
    80001648:	0007861b          	sext.w	a2,a5
    8000164c:	85ba                	mv	a1,a4
    8000164e:	00000097          	auipc	ra,0x0
    80001652:	e5e080e7          	jalr	-418(ra) # 800014ac <uvmunmap>
    80001656:	b7c5                	j	80001636 <uvmdealloc+0x26>

0000000080001658 <uvmalloc>:
  if (newsz < oldsz)
    80001658:	0ab66563          	bltu	a2,a1,80001702 <uvmalloc+0xaa>
{
    8000165c:	7139                	addi	sp,sp,-64
    8000165e:	fc06                	sd	ra,56(sp)
    80001660:	f822                	sd	s0,48(sp)
    80001662:	f426                	sd	s1,40(sp)
    80001664:	f04a                	sd	s2,32(sp)
    80001666:	ec4e                	sd	s3,24(sp)
    80001668:	e852                	sd	s4,16(sp)
    8000166a:	e456                	sd	s5,8(sp)
    8000166c:	e05a                	sd	s6,0(sp)
    8000166e:	0080                	addi	s0,sp,64
    80001670:	8aaa                	mv	s5,a0
    80001672:	8a32                	mv	s4,a2
  oldsz = PGROUNDUP(oldsz);
    80001674:	6985                	lui	s3,0x1
    80001676:	19fd                	addi	s3,s3,-1
    80001678:	95ce                	add	a1,a1,s3
    8000167a:	79fd                	lui	s3,0xfffff
    8000167c:	0135f9b3          	and	s3,a1,s3
  for (a = oldsz; a < newsz; a += PGSIZE)
    80001680:	08c9f363          	bgeu	s3,a2,80001706 <uvmalloc+0xae>
    80001684:	894e                	mv	s2,s3
    if (mappages(pagetable, a, PGSIZE, (uint64)mem, PTE_R | PTE_U | xperm) != 0)
    80001686:	0126eb13          	ori	s6,a3,18
    mem = kalloc();
    8000168a:	fffff097          	auipc	ra,0xfffff
    8000168e:	690080e7          	jalr	1680(ra) # 80000d1a <kalloc>
    80001692:	84aa                	mv	s1,a0
    if (mem == 0)
    80001694:	c51d                	beqz	a0,800016c2 <uvmalloc+0x6a>
    memset(mem, 0, PGSIZE);
    80001696:	6605                	lui	a2,0x1
    80001698:	4581                	li	a1,0
    8000169a:	00000097          	auipc	ra,0x0
    8000169e:	878080e7          	jalr	-1928(ra) # 80000f12 <memset>
    if (mappages(pagetable, a, PGSIZE, (uint64)mem, PTE_R | PTE_U | xperm) != 0)
    800016a2:	875a                	mv	a4,s6
    800016a4:	86a6                	mv	a3,s1
    800016a6:	6605                	lui	a2,0x1
    800016a8:	85ca                	mv	a1,s2
    800016aa:	8556                	mv	a0,s5
    800016ac:	00000097          	auipc	ra,0x0
    800016b0:	c3a080e7          	jalr	-966(ra) # 800012e6 <mappages>
    800016b4:	e90d                	bnez	a0,800016e6 <uvmalloc+0x8e>
  for (a = oldsz; a < newsz; a += PGSIZE)
    800016b6:	6785                	lui	a5,0x1
    800016b8:	993e                	add	s2,s2,a5
    800016ba:	fd4968e3          	bltu	s2,s4,8000168a <uvmalloc+0x32>
  return newsz;
    800016be:	8552                	mv	a0,s4
    800016c0:	a809                	j	800016d2 <uvmalloc+0x7a>
      uvmdealloc(pagetable, a, oldsz);
    800016c2:	864e                	mv	a2,s3
    800016c4:	85ca                	mv	a1,s2
    800016c6:	8556                	mv	a0,s5
    800016c8:	00000097          	auipc	ra,0x0
    800016cc:	f48080e7          	jalr	-184(ra) # 80001610 <uvmdealloc>
      return 0;
    800016d0:	4501                	li	a0,0
}
    800016d2:	70e2                	ld	ra,56(sp)
    800016d4:	7442                	ld	s0,48(sp)
    800016d6:	74a2                	ld	s1,40(sp)
    800016d8:	7902                	ld	s2,32(sp)
    800016da:	69e2                	ld	s3,24(sp)
    800016dc:	6a42                	ld	s4,16(sp)
    800016de:	6aa2                	ld	s5,8(sp)
    800016e0:	6b02                	ld	s6,0(sp)
    800016e2:	6121                	addi	sp,sp,64
    800016e4:	8082                	ret
      kfree(mem);
    800016e6:	8526                	mv	a0,s1
    800016e8:	fffff097          	auipc	ra,0xfffff
    800016ec:	4aa080e7          	jalr	1194(ra) # 80000b92 <kfree>
      uvmdealloc(pagetable, a, oldsz);
    800016f0:	864e                	mv	a2,s3
    800016f2:	85ca                	mv	a1,s2
    800016f4:	8556                	mv	a0,s5
    800016f6:	00000097          	auipc	ra,0x0
    800016fa:	f1a080e7          	jalr	-230(ra) # 80001610 <uvmdealloc>
      return 0;
    800016fe:	4501                	li	a0,0
    80001700:	bfc9                	j	800016d2 <uvmalloc+0x7a>
    return oldsz;
    80001702:	852e                	mv	a0,a1
}
    80001704:	8082                	ret
  return newsz;
    80001706:	8532                	mv	a0,a2
    80001708:	b7e9                	j	800016d2 <uvmalloc+0x7a>

000000008000170a <freewalk>:

// Recursively free page-table pages.
// All leaf mappings must already have been removed.
void freewalk(pagetable_t pagetable)
{
    8000170a:	7179                	addi	sp,sp,-48
    8000170c:	f406                	sd	ra,40(sp)
    8000170e:	f022                	sd	s0,32(sp)
    80001710:	ec26                	sd	s1,24(sp)
    80001712:	e84a                	sd	s2,16(sp)
    80001714:	e44e                	sd	s3,8(sp)
    80001716:	e052                	sd	s4,0(sp)
    80001718:	1800                	addi	s0,sp,48
    8000171a:	8a2a                	mv	s4,a0
  // there are 2^9 = 512 PTEs in a page table.
  for (int i = 0; i < 512; i++)
    8000171c:	84aa                	mv	s1,a0
    8000171e:	6905                	lui	s2,0x1
    80001720:	992a                	add	s2,s2,a0
  {
    pte_t pte = pagetable[i];
    if ((pte & PTE_V) && (pte & (PTE_R | PTE_W | PTE_X)) == 0)
    80001722:	4985                	li	s3,1
    80001724:	a821                	j	8000173c <freewalk+0x32>
    {
      // this PTE points to a lower-level page table.
      uint64 child = PTE2PA(pte);
    80001726:	8129                	srli	a0,a0,0xa
      freewalk((pagetable_t)child);
    80001728:	0532                	slli	a0,a0,0xc
    8000172a:	00000097          	auipc	ra,0x0
    8000172e:	fe0080e7          	jalr	-32(ra) # 8000170a <freewalk>
      pagetable[i] = 0;
    80001732:	0004b023          	sd	zero,0(s1)
  for (int i = 0; i < 512; i++)
    80001736:	04a1                	addi	s1,s1,8
    80001738:	03248163          	beq	s1,s2,8000175a <freewalk+0x50>
    pte_t pte = pagetable[i];
    8000173c:	6088                	ld	a0,0(s1)
    if ((pte & PTE_V) && (pte & (PTE_R | PTE_W | PTE_X)) == 0)
    8000173e:	00f57793          	andi	a5,a0,15
    80001742:	ff3782e3          	beq	a5,s3,80001726 <freewalk+0x1c>
    }
    else if (pte & PTE_V)
    80001746:	8905                	andi	a0,a0,1
    80001748:	d57d                	beqz	a0,80001736 <freewalk+0x2c>
    {
      panic("freewalk: leaf");
    8000174a:	00008517          	auipc	a0,0x8
    8000174e:	a6650513          	addi	a0,a0,-1434 # 800091b0 <digits+0x170>
    80001752:	fffff097          	auipc	ra,0xfffff
    80001756:	df2080e7          	jalr	-526(ra) # 80000544 <panic>
    }
  }
  kfree((void *)pagetable);
    8000175a:	8552                	mv	a0,s4
    8000175c:	fffff097          	auipc	ra,0xfffff
    80001760:	436080e7          	jalr	1078(ra) # 80000b92 <kfree>
}
    80001764:	70a2                	ld	ra,40(sp)
    80001766:	7402                	ld	s0,32(sp)
    80001768:	64e2                	ld	s1,24(sp)
    8000176a:	6942                	ld	s2,16(sp)
    8000176c:	69a2                	ld	s3,8(sp)
    8000176e:	6a02                	ld	s4,0(sp)
    80001770:	6145                	addi	sp,sp,48
    80001772:	8082                	ret

0000000080001774 <uvmfree>:

// Free user memory pages,
// then free page-table pages.
void uvmfree(pagetable_t pagetable, uint64 sz)
{
    80001774:	1101                	addi	sp,sp,-32
    80001776:	ec06                	sd	ra,24(sp)
    80001778:	e822                	sd	s0,16(sp)
    8000177a:	e426                	sd	s1,8(sp)
    8000177c:	1000                	addi	s0,sp,32
    8000177e:	84aa                	mv	s1,a0
  if (sz > 0)
    80001780:	e999                	bnez	a1,80001796 <uvmfree+0x22>
    uvmunmap(pagetable, 0, PGROUNDUP(sz) / PGSIZE, 1);
  freewalk(pagetable);
    80001782:	8526                	mv	a0,s1
    80001784:	00000097          	auipc	ra,0x0
    80001788:	f86080e7          	jalr	-122(ra) # 8000170a <freewalk>
}
    8000178c:	60e2                	ld	ra,24(sp)
    8000178e:	6442                	ld	s0,16(sp)
    80001790:	64a2                	ld	s1,8(sp)
    80001792:	6105                	addi	sp,sp,32
    80001794:	8082                	ret
    uvmunmap(pagetable, 0, PGROUNDUP(sz) / PGSIZE, 1);
    80001796:	6605                	lui	a2,0x1
    80001798:	167d                	addi	a2,a2,-1
    8000179a:	962e                	add	a2,a2,a1
    8000179c:	4685                	li	a3,1
    8000179e:	8231                	srli	a2,a2,0xc
    800017a0:	4581                	li	a1,0
    800017a2:	00000097          	auipc	ra,0x0
    800017a6:	d0a080e7          	jalr	-758(ra) # 800014ac <uvmunmap>
    800017aa:	bfe1                	j	80001782 <uvmfree+0xe>

00000000800017ac <uvmcopy>:
// Copies both the page table and the
// physical memory.
// returns 0 on success, -1 on failure.
// frees any allocated pages on failure.
int uvmcopy(pagetable_t old, pagetable_t new, uint64 sz)
{
    800017ac:	715d                	addi	sp,sp,-80
    800017ae:	e486                	sd	ra,72(sp)
    800017b0:	e0a2                	sd	s0,64(sp)
    800017b2:	fc26                	sd	s1,56(sp)
    800017b4:	f84a                	sd	s2,48(sp)
    800017b6:	f44e                	sd	s3,40(sp)
    800017b8:	f052                	sd	s4,32(sp)
    800017ba:	ec56                	sd	s5,24(sp)
    800017bc:	e85a                	sd	s6,16(sp)
    800017be:	e45e                	sd	s7,8(sp)
    800017c0:	0880                	addi	s0,sp,80
  pte_t *pte;
  uint64 i;
  uint flags;

  for (i = 0; i < sz; i += PGSIZE)
    800017c2:	c271                	beqz	a2,80001886 <uvmcopy+0xda>
    800017c4:	8aaa                	mv	s5,a0
    800017c6:	8a2e                	mv	s4,a1
    800017c8:	89b2                	mv	s3,a2
    800017ca:	4901                	li	s2,0
      panic("uvmcopy: page not present");
    flags = PTE_FLAGS(*pte);
    if (flags & PTE_W)
    {
      flags = PTE_C | (flags & (~PTE_W));
      *pte = PA2PTE(PTE2PA(*pte)) | flags;
    800017cc:	7b7d                	lui	s6,0xfffff
    800017ce:	002b5b13          	srli	s6,s6,0x2
    800017d2:	a881                	j	80001822 <uvmcopy+0x76>
      panic("uvmcopy: pte should exist");
    800017d4:	00008517          	auipc	a0,0x8
    800017d8:	9ec50513          	addi	a0,a0,-1556 # 800091c0 <digits+0x180>
    800017dc:	fffff097          	auipc	ra,0xfffff
    800017e0:	d68080e7          	jalr	-664(ra) # 80000544 <panic>
      panic("uvmcopy: page not present");
    800017e4:	00008517          	auipc	a0,0x8
    800017e8:	9fc50513          	addi	a0,a0,-1540 # 800091e0 <digits+0x1a0>
    800017ec:	fffff097          	auipc	ra,0xfffff
    800017f0:	d58080e7          	jalr	-680(ra) # 80000544 <panic>
    }
    if (mappages(new, i, PGSIZE, PTE2PA(*pte), flags) != 0)
    800017f4:	6094                	ld	a3,0(s1)
    800017f6:	82a9                	srli	a3,a3,0xa
    800017f8:	06b2                	slli	a3,a3,0xc
    800017fa:	6605                	lui	a2,0x1
    800017fc:	85ca                	mv	a1,s2
    800017fe:	8552                	mv	a0,s4
    80001800:	00000097          	auipc	ra,0x0
    80001804:	ae6080e7          	jalr	-1306(ra) # 800012e6 <mappages>
    80001808:	8baa                	mv	s7,a0
    8000180a:	e921                	bnez	a0,8000185a <uvmcopy+0xae>
    {
      goto err;
    }
    increment_page((void *)PTE2PA(*pte));
    8000180c:	6088                	ld	a0,0(s1)
    8000180e:	8129                	srli	a0,a0,0xa
    80001810:	0532                	slli	a0,a0,0xc
    80001812:	fffff097          	auipc	ra,0xfffff
    80001816:	2ac080e7          	jalr	684(ra) # 80000abe <increment_page>
  for (i = 0; i < sz; i += PGSIZE)
    8000181a:	6785                	lui	a5,0x1
    8000181c:	993e                	add	s2,s2,a5
    8000181e:	05397863          	bgeu	s2,s3,8000186e <uvmcopy+0xc2>
    if ((pte = walk(old, i, 0)) == 0)
    80001822:	4601                	li	a2,0
    80001824:	85ca                	mv	a1,s2
    80001826:	8556                	mv	a0,s5
    80001828:	00000097          	auipc	ra,0x0
    8000182c:	9d6080e7          	jalr	-1578(ra) # 800011fe <walk>
    80001830:	84aa                	mv	s1,a0
    80001832:	d14d                	beqz	a0,800017d4 <uvmcopy+0x28>
    if ((*pte & PTE_V) == 0)
    80001834:	611c                	ld	a5,0(a0)
    80001836:	0017f713          	andi	a4,a5,1
    8000183a:	d74d                	beqz	a4,800017e4 <uvmcopy+0x38>
    flags = PTE_FLAGS(*pte);
    8000183c:	0007869b          	sext.w	a3,a5
    80001840:	3ff7f713          	andi	a4,a5,1023
    if (flags & PTE_W)
    80001844:	8a91                	andi	a3,a3,4
    80001846:	d6dd                	beqz	a3,800017f4 <uvmcopy+0x48>
      flags = PTE_C | (flags & (~PTE_W));
    80001848:	efb77693          	andi	a3,a4,-261
    8000184c:	1006e713          	ori	a4,a3,256
      *pte = PA2PTE(PTE2PA(*pte)) | flags;
    80001850:	0167f7b3          	and	a5,a5,s6
    80001854:	8fd9                	or	a5,a5,a4
    80001856:	e11c                	sd	a5,0(a0)
    80001858:	bf71                	j	800017f4 <uvmcopy+0x48>
  }
  return 0;

err:
  uvmunmap(new, 0, i / PGSIZE, 1);
    8000185a:	4685                	li	a3,1
    8000185c:	00c95613          	srli	a2,s2,0xc
    80001860:	4581                	li	a1,0
    80001862:	8552                	mv	a0,s4
    80001864:	00000097          	auipc	ra,0x0
    80001868:	c48080e7          	jalr	-952(ra) # 800014ac <uvmunmap>
  return -1;
    8000186c:	5bfd                	li	s7,-1
}
    8000186e:	855e                	mv	a0,s7
    80001870:	60a6                	ld	ra,72(sp)
    80001872:	6406                	ld	s0,64(sp)
    80001874:	74e2                	ld	s1,56(sp)
    80001876:	7942                	ld	s2,48(sp)
    80001878:	79a2                	ld	s3,40(sp)
    8000187a:	7a02                	ld	s4,32(sp)
    8000187c:	6ae2                	ld	s5,24(sp)
    8000187e:	6b42                	ld	s6,16(sp)
    80001880:	6ba2                	ld	s7,8(sp)
    80001882:	6161                	addi	sp,sp,80
    80001884:	8082                	ret
  return 0;
    80001886:	4b81                	li	s7,0
    80001888:	b7dd                	j	8000186e <uvmcopy+0xc2>

000000008000188a <uvmclear>:

// mark a PTE invalid for user access.
// used by exec for the user stack guard page.
void uvmclear(pagetable_t pagetable, uint64 va)
{
    8000188a:	1141                	addi	sp,sp,-16
    8000188c:	e406                	sd	ra,8(sp)
    8000188e:	e022                	sd	s0,0(sp)
    80001890:	0800                	addi	s0,sp,16
  pte_t *pte;

  pte = walk(pagetable, va, 0);
    80001892:	4601                	li	a2,0
    80001894:	00000097          	auipc	ra,0x0
    80001898:	96a080e7          	jalr	-1686(ra) # 800011fe <walk>
  if (pte == 0)
    8000189c:	c901                	beqz	a0,800018ac <uvmclear+0x22>
    panic("uvmclear");
  *pte &= ~PTE_U;
    8000189e:	611c                	ld	a5,0(a0)
    800018a0:	9bbd                	andi	a5,a5,-17
    800018a2:	e11c                	sd	a5,0(a0)
}
    800018a4:	60a2                	ld	ra,8(sp)
    800018a6:	6402                	ld	s0,0(sp)
    800018a8:	0141                	addi	sp,sp,16
    800018aa:	8082                	ret
    panic("uvmclear");
    800018ac:	00008517          	auipc	a0,0x8
    800018b0:	95450513          	addi	a0,a0,-1708 # 80009200 <digits+0x1c0>
    800018b4:	fffff097          	auipc	ra,0xfffff
    800018b8:	c90080e7          	jalr	-880(ra) # 80000544 <panic>

00000000800018bc <copyout>:
int copyout(pagetable_t pagetable, uint64 dstva, char *src, uint64 len)
{
  uint64 n, va0, pa0, flags;
  pte_t *pte;

  while (len > 0)
    800018bc:	c2d5                	beqz	a3,80001960 <copyout+0xa4>
{
    800018be:	711d                	addi	sp,sp,-96
    800018c0:	ec86                	sd	ra,88(sp)
    800018c2:	e8a2                	sd	s0,80(sp)
    800018c4:	e4a6                	sd	s1,72(sp)
    800018c6:	e0ca                	sd	s2,64(sp)
    800018c8:	fc4e                	sd	s3,56(sp)
    800018ca:	f852                	sd	s4,48(sp)
    800018cc:	f456                	sd	s5,40(sp)
    800018ce:	f05a                	sd	s6,32(sp)
    800018d0:	ec5e                	sd	s7,24(sp)
    800018d2:	e862                	sd	s8,16(sp)
    800018d4:	e466                	sd	s9,8(sp)
    800018d6:	1080                	addi	s0,sp,96
    800018d8:	8baa                	mv	s7,a0
    800018da:	89ae                	mv	s3,a1
    800018dc:	8b32                	mv	s6,a2
    800018de:	8ab6                	mv	s5,a3
  {
    va0 = PGROUNDDOWN(dstva);
    800018e0:	7cfd                	lui	s9,0xfffff
      if (flags & PTE_C)
      {
        handle_page((void *)va0, pagetable);
        pa0 = walkaddr(pagetable, va0);
      }
      n = PGSIZE + va0 - dstva;
    800018e2:	6c05                	lui	s8,0x1
    800018e4:	a081                	j	80001924 <copyout+0x68>
        handle_page((void *)va0, pagetable);
    800018e6:	85de                	mv	a1,s7
    800018e8:	854a                	mv	a0,s2
    800018ea:	00002097          	auipc	ra,0x2
    800018ee:	a68080e7          	jalr	-1432(ra) # 80003352 <handle_page>
        pa0 = walkaddr(pagetable, va0);
    800018f2:	85ca                	mv	a1,s2
    800018f4:	855e                	mv	a0,s7
    800018f6:	00000097          	auipc	ra,0x0
    800018fa:	9ae080e7          	jalr	-1618(ra) # 800012a4 <walkaddr>
    800018fe:	8a2a                	mv	s4,a0
    80001900:	a0b9                	j	8000194e <copyout+0x92>
      if (n >= len)
      {
        n = len;
      }
      memmove((void *)(pa0 + (dstva - va0)), src, n);
    80001902:	41298533          	sub	a0,s3,s2
    80001906:	0004861b          	sext.w	a2,s1
    8000190a:	85da                	mv	a1,s6
    8000190c:	9552                	add	a0,a0,s4
    8000190e:	fffff097          	auipc	ra,0xfffff
    80001912:	664080e7          	jalr	1636(ra) # 80000f72 <memmove>
      src += n;
    80001916:	9b26                	add	s6,s6,s1
      len -= n;
    80001918:	409a8ab3          	sub	s5,s5,s1
      dstva = va0 + PGSIZE;
    8000191c:	018909b3          	add	s3,s2,s8
  while (len > 0)
    80001920:	020a8e63          	beqz	s5,8000195c <copyout+0xa0>
    va0 = PGROUNDDOWN(dstva);
    80001924:	0199f933          	and	s2,s3,s9
    pa0 = walkaddr(pagetable, va0);
    80001928:	85ca                	mv	a1,s2
    8000192a:	855e                	mv	a0,s7
    8000192c:	00000097          	auipc	ra,0x0
    80001930:	978080e7          	jalr	-1672(ra) # 800012a4 <walkaddr>
    80001934:	8a2a                	mv	s4,a0
    if (pa0)
    80001936:	c51d                	beqz	a0,80001964 <copyout+0xa8>
      pte = walk(pagetable, va0, 0);
    80001938:	4601                	li	a2,0
    8000193a:	85ca                	mv	a1,s2
    8000193c:	855e                	mv	a0,s7
    8000193e:	00000097          	auipc	ra,0x0
    80001942:	8c0080e7          	jalr	-1856(ra) # 800011fe <walk>
      if (flags & PTE_C)
    80001946:	611c                	ld	a5,0(a0)
    80001948:	1007f793          	andi	a5,a5,256
    8000194c:	ffc9                	bnez	a5,800018e6 <copyout+0x2a>
      n = PGSIZE + va0 - dstva;
    8000194e:	413904b3          	sub	s1,s2,s3
    80001952:	94e2                	add	s1,s1,s8
      if (n >= len)
    80001954:	fa9af7e3          	bgeu	s5,s1,80001902 <copyout+0x46>
    80001958:	84d6                	mv	s1,s5
    8000195a:	b765                	j	80001902 <copyout+0x46>
    else
    {
      return -1;
    }
  }
  return 0;
    8000195c:	4501                	li	a0,0
    8000195e:	a021                	j	80001966 <copyout+0xaa>
    80001960:	4501                	li	a0,0
}
    80001962:	8082                	ret
      return -1;
    80001964:	557d                	li	a0,-1
}
    80001966:	60e6                	ld	ra,88(sp)
    80001968:	6446                	ld	s0,80(sp)
    8000196a:	64a6                	ld	s1,72(sp)
    8000196c:	6906                	ld	s2,64(sp)
    8000196e:	79e2                	ld	s3,56(sp)
    80001970:	7a42                	ld	s4,48(sp)
    80001972:	7aa2                	ld	s5,40(sp)
    80001974:	7b02                	ld	s6,32(sp)
    80001976:	6be2                	ld	s7,24(sp)
    80001978:	6c42                	ld	s8,16(sp)
    8000197a:	6ca2                	ld	s9,8(sp)
    8000197c:	6125                	addi	sp,sp,96
    8000197e:	8082                	ret

0000000080001980 <copyin>:
// Return 0 on success, -1 on error.
int copyin(pagetable_t pagetable, char *dst, uint64 srcva, uint64 len)
{
  uint64 n, va0, pa0;

  while (len > 0)
    80001980:	c6bd                	beqz	a3,800019ee <copyin+0x6e>
{
    80001982:	715d                	addi	sp,sp,-80
    80001984:	e486                	sd	ra,72(sp)
    80001986:	e0a2                	sd	s0,64(sp)
    80001988:	fc26                	sd	s1,56(sp)
    8000198a:	f84a                	sd	s2,48(sp)
    8000198c:	f44e                	sd	s3,40(sp)
    8000198e:	f052                	sd	s4,32(sp)
    80001990:	ec56                	sd	s5,24(sp)
    80001992:	e85a                	sd	s6,16(sp)
    80001994:	e45e                	sd	s7,8(sp)
    80001996:	e062                	sd	s8,0(sp)
    80001998:	0880                	addi	s0,sp,80
    8000199a:	8b2a                	mv	s6,a0
    8000199c:	8a2e                	mv	s4,a1
    8000199e:	8c32                	mv	s8,a2
    800019a0:	89b6                	mv	s3,a3
  {
    va0 = PGROUNDDOWN(srcva);
    800019a2:	7bfd                	lui	s7,0xfffff
    pa0 = walkaddr(pagetable, va0);
    if (pa0 == 0)
      return -1;
    n = PGSIZE - (srcva - va0);
    800019a4:	6a85                	lui	s5,0x1
    800019a6:	a015                	j	800019ca <copyin+0x4a>
    if (n > len)
      n = len;
    memmove(dst, (void *)(pa0 + (srcva - va0)), n);
    800019a8:	9562                	add	a0,a0,s8
    800019aa:	0004861b          	sext.w	a2,s1
    800019ae:	412505b3          	sub	a1,a0,s2
    800019b2:	8552                	mv	a0,s4
    800019b4:	fffff097          	auipc	ra,0xfffff
    800019b8:	5be080e7          	jalr	1470(ra) # 80000f72 <memmove>

    len -= n;
    800019bc:	409989b3          	sub	s3,s3,s1
    dst += n;
    800019c0:	9a26                	add	s4,s4,s1
    srcva = va0 + PGSIZE;
    800019c2:	01590c33          	add	s8,s2,s5
  while (len > 0)
    800019c6:	02098263          	beqz	s3,800019ea <copyin+0x6a>
    va0 = PGROUNDDOWN(srcva);
    800019ca:	017c7933          	and	s2,s8,s7
    pa0 = walkaddr(pagetable, va0);
    800019ce:	85ca                	mv	a1,s2
    800019d0:	855a                	mv	a0,s6
    800019d2:	00000097          	auipc	ra,0x0
    800019d6:	8d2080e7          	jalr	-1838(ra) # 800012a4 <walkaddr>
    if (pa0 == 0)
    800019da:	cd01                	beqz	a0,800019f2 <copyin+0x72>
    n = PGSIZE - (srcva - va0);
    800019dc:	418904b3          	sub	s1,s2,s8
    800019e0:	94d6                	add	s1,s1,s5
    if (n > len)
    800019e2:	fc99f3e3          	bgeu	s3,s1,800019a8 <copyin+0x28>
    800019e6:	84ce                	mv	s1,s3
    800019e8:	b7c1                	j	800019a8 <copyin+0x28>
  }
  return 0;
    800019ea:	4501                	li	a0,0
    800019ec:	a021                	j	800019f4 <copyin+0x74>
    800019ee:	4501                	li	a0,0
}
    800019f0:	8082                	ret
      return -1;
    800019f2:	557d                	li	a0,-1
}
    800019f4:	60a6                	ld	ra,72(sp)
    800019f6:	6406                	ld	s0,64(sp)
    800019f8:	74e2                	ld	s1,56(sp)
    800019fa:	7942                	ld	s2,48(sp)
    800019fc:	79a2                	ld	s3,40(sp)
    800019fe:	7a02                	ld	s4,32(sp)
    80001a00:	6ae2                	ld	s5,24(sp)
    80001a02:	6b42                	ld	s6,16(sp)
    80001a04:	6ba2                	ld	s7,8(sp)
    80001a06:	6c02                	ld	s8,0(sp)
    80001a08:	6161                	addi	sp,sp,80
    80001a0a:	8082                	ret

0000000080001a0c <copyinstr>:
int copyinstr(pagetable_t pagetable, char *dst, uint64 srcva, uint64 max)
{
  uint64 n, va0, pa0;
  int got_null = 0;

  while (got_null == 0 && max > 0)
    80001a0c:	c6c5                	beqz	a3,80001ab4 <copyinstr+0xa8>
{
    80001a0e:	715d                	addi	sp,sp,-80
    80001a10:	e486                	sd	ra,72(sp)
    80001a12:	e0a2                	sd	s0,64(sp)
    80001a14:	fc26                	sd	s1,56(sp)
    80001a16:	f84a                	sd	s2,48(sp)
    80001a18:	f44e                	sd	s3,40(sp)
    80001a1a:	f052                	sd	s4,32(sp)
    80001a1c:	ec56                	sd	s5,24(sp)
    80001a1e:	e85a                	sd	s6,16(sp)
    80001a20:	e45e                	sd	s7,8(sp)
    80001a22:	0880                	addi	s0,sp,80
    80001a24:	8a2a                	mv	s4,a0
    80001a26:	8b2e                	mv	s6,a1
    80001a28:	8bb2                	mv	s7,a2
    80001a2a:	84b6                	mv	s1,a3
  {
    va0 = PGROUNDDOWN(srcva);
    80001a2c:	7afd                	lui	s5,0xfffff
    pa0 = walkaddr(pagetable, va0);
    if (pa0 == 0)
      return -1;
    n = PGSIZE - (srcva - va0);
    80001a2e:	6985                	lui	s3,0x1
    80001a30:	a035                	j	80001a5c <copyinstr+0x50>
    char *p = (char *)(pa0 + (srcva - va0));
    while (n > 0)
    {
      if (*p == '\0')
      {
        *dst = '\0';
    80001a32:	00078023          	sb	zero,0(a5) # 1000 <_entry-0x7ffff000>
    80001a36:	4785                	li	a5,1
      dst++;
    }

    srcva = va0 + PGSIZE;
  }
  if (got_null)
    80001a38:	0017b793          	seqz	a5,a5
    80001a3c:	40f00533          	neg	a0,a5
  }
  else
  {
    return -1;
  }
}
    80001a40:	60a6                	ld	ra,72(sp)
    80001a42:	6406                	ld	s0,64(sp)
    80001a44:	74e2                	ld	s1,56(sp)
    80001a46:	7942                	ld	s2,48(sp)
    80001a48:	79a2                	ld	s3,40(sp)
    80001a4a:	7a02                	ld	s4,32(sp)
    80001a4c:	6ae2                	ld	s5,24(sp)
    80001a4e:	6b42                	ld	s6,16(sp)
    80001a50:	6ba2                	ld	s7,8(sp)
    80001a52:	6161                	addi	sp,sp,80
    80001a54:	8082                	ret
    srcva = va0 + PGSIZE;
    80001a56:	01390bb3          	add	s7,s2,s3
  while (got_null == 0 && max > 0)
    80001a5a:	c8a9                	beqz	s1,80001aac <copyinstr+0xa0>
    va0 = PGROUNDDOWN(srcva);
    80001a5c:	015bf933          	and	s2,s7,s5
    pa0 = walkaddr(pagetable, va0);
    80001a60:	85ca                	mv	a1,s2
    80001a62:	8552                	mv	a0,s4
    80001a64:	00000097          	auipc	ra,0x0
    80001a68:	840080e7          	jalr	-1984(ra) # 800012a4 <walkaddr>
    if (pa0 == 0)
    80001a6c:	c131                	beqz	a0,80001ab0 <copyinstr+0xa4>
    n = PGSIZE - (srcva - va0);
    80001a6e:	41790833          	sub	a6,s2,s7
    80001a72:	984e                	add	a6,a6,s3
    if (n > max)
    80001a74:	0104f363          	bgeu	s1,a6,80001a7a <copyinstr+0x6e>
    80001a78:	8826                	mv	a6,s1
    char *p = (char *)(pa0 + (srcva - va0));
    80001a7a:	955e                	add	a0,a0,s7
    80001a7c:	41250533          	sub	a0,a0,s2
    while (n > 0)
    80001a80:	fc080be3          	beqz	a6,80001a56 <copyinstr+0x4a>
    80001a84:	985a                	add	a6,a6,s6
    80001a86:	87da                	mv	a5,s6
      if (*p == '\0')
    80001a88:	41650633          	sub	a2,a0,s6
    80001a8c:	14fd                	addi	s1,s1,-1
    80001a8e:	9b26                	add	s6,s6,s1
    80001a90:	00f60733          	add	a4,a2,a5
    80001a94:	00074703          	lbu	a4,0(a4)
    80001a98:	df49                	beqz	a4,80001a32 <copyinstr+0x26>
        *dst = *p;
    80001a9a:	00e78023          	sb	a4,0(a5)
      --max;
    80001a9e:	40fb04b3          	sub	s1,s6,a5
      dst++;
    80001aa2:	0785                	addi	a5,a5,1
    while (n > 0)
    80001aa4:	ff0796e3          	bne	a5,a6,80001a90 <copyinstr+0x84>
      dst++;
    80001aa8:	8b42                	mv	s6,a6
    80001aaa:	b775                	j	80001a56 <copyinstr+0x4a>
    80001aac:	4781                	li	a5,0
    80001aae:	b769                	j	80001a38 <copyinstr+0x2c>
      return -1;
    80001ab0:	557d                	li	a0,-1
    80001ab2:	b779                	j	80001a40 <copyinstr+0x34>
  int got_null = 0;
    80001ab4:	4781                	li	a5,0
  if (got_null)
    80001ab6:	0017b793          	seqz	a5,a5
    80001aba:	40f00533          	neg	a0,a5
}
    80001abe:	8082                	ret

0000000080001ac0 <Create_Queue>:
#include "proc.h"
#include "defs.h"
#include <stddef.h>

queue Create_Queue()
{
    80001ac0:	1141                	addi	sp,sp,-16
    80001ac2:	e422                	sd	s0,8(sp)
    80001ac4:	0800                	addi	s0,sp,16
  queue qu;
  qu.front = 0;
  qu.rear = 0;
  qu.numitems = 0;
  return qu;
    80001ac6:	00052223          	sw	zero,4(a0)
    80001aca:	00052423          	sw	zero,8(a0)
    80001ace:	20052c23          	sw	zero,536(a0)
}
    80001ad2:	6422                	ld	s0,8(sp)
    80001ad4:	0141                	addi	sp,sp,16
    80001ad6:	8082                	ret

0000000080001ad8 <enqueue>:

void enqueue(queue *qu, queue_element el)
{
    80001ad8:	1141                	addi	sp,sp,-16
    80001ada:	e406                	sd	ra,8(sp)
    80001adc:	e022                	sd	s0,0(sp)
    80001ade:	0800                	addi	s0,sp,16
  qu->arr[qu->rear] = el;
    80001ae0:	451c                	lw	a5,8(a0)
    80001ae2:	00278713          	addi	a4,a5,2
    80001ae6:	070e                	slli	a4,a4,0x3
    80001ae8:	972a                	add	a4,a4,a0
    80001aea:	e30c                	sd	a1,0(a4)
  qu->rear = (qu->rear + 1) % 64;
    80001aec:	2785                	addiw	a5,a5,1
    80001aee:	41f7d71b          	sraiw	a4,a5,0x1f
    80001af2:	01a7571b          	srliw	a4,a4,0x1a
    80001af6:	9fb9                	addw	a5,a5,a4
    80001af8:	03f7f793          	andi	a5,a5,63
    80001afc:	9f99                	subw	a5,a5,a4
    80001afe:	c51c                	sw	a5,8(a0)
  qu->numitems++;
    80001b00:	21852783          	lw	a5,536(a0)
    80001b04:	2785                	addiw	a5,a5,1
    80001b06:	20f52c23          	sw	a5,536(a0)
  // if (el->pid > 9)
    printf("%d %d %d\n", ticks, el->pid, el->mlfq_priority);
    80001b0a:	1d05b683          	ld	a3,464(a1) # 40001d0 <_entry-0x7bfffe30>
    80001b0e:	5990                	lw	a2,48(a1)
    80001b10:	00008597          	auipc	a1,0x8
    80001b14:	1205a583          	lw	a1,288(a1) # 80009c30 <ticks>
    80001b18:	00007517          	auipc	a0,0x7
    80001b1c:	7e850513          	addi	a0,a0,2024 # 80009300 <digits+0x2c0>
    80001b20:	fffff097          	auipc	ra,0xfffff
    80001b24:	a6e080e7          	jalr	-1426(ra) # 8000058e <printf>
  return;
}
    80001b28:	60a2                	ld	ra,8(sp)
    80001b2a:	6402                	ld	s0,0(sp)
    80001b2c:	0141                	addi	sp,sp,16
    80001b2e:	8082                	ret

0000000080001b30 <dequeue>:

void dequeue(queue *qu)
{
    80001b30:	1141                	addi	sp,sp,-16
    80001b32:	e422                	sd	s0,8(sp)
    80001b34:	0800                	addi	s0,sp,16
  if (!qu->numitems)
    80001b36:	21852783          	lw	a5,536(a0)
    80001b3a:	cf99                	beqz	a5,80001b58 <dequeue+0x28>
    return;
  qu->numitems--;
    80001b3c:	37fd                	addiw	a5,a5,-1
    80001b3e:	20f52c23          	sw	a5,536(a0)
  qu->front = (qu->front + 1) % 64;
    80001b42:	415c                	lw	a5,4(a0)
    80001b44:	2785                	addiw	a5,a5,1
    80001b46:	41f7d71b          	sraiw	a4,a5,0x1f
    80001b4a:	01a7571b          	srliw	a4,a4,0x1a
    80001b4e:	9fb9                	addw	a5,a5,a4
    80001b50:	03f7f793          	andi	a5,a5,63
    80001b54:	9f99                	subw	a5,a5,a4
    80001b56:	c15c                	sw	a5,4(a0)
}
    80001b58:	6422                	ld	s0,8(sp)
    80001b5a:	0141                	addi	sp,sp,16
    80001b5c:	8082                	ret

0000000080001b5e <isempty>:

int isempty(queue qu)
{
    80001b5e:	1141                	addi	sp,sp,-16
    80001b60:	e422                	sd	s0,8(sp)
    80001b62:	0800                	addi	s0,sp,16
  return (qu.numitems == 0);
    80001b64:	21852503          	lw	a0,536(a0)
}
    80001b68:	00153513          	seqz	a0,a0
    80001b6c:	6422                	ld	s0,8(sp)
    80001b6e:	0141                	addi	sp,sp,16
    80001b70:	8082                	ret

0000000080001b72 <front>:

queue_element front(queue qu)
{
    80001b72:	1141                	addi	sp,sp,-16
    80001b74:	e422                	sd	s0,8(sp)
    80001b76:	0800                	addi	s0,sp,16
  return qu.arr[qu.front];
    80001b78:	415c                	lw	a5,4(a0)
    80001b7a:	0789                	addi	a5,a5,2
    80001b7c:	078e                	slli	a5,a5,0x3
    80001b7e:	953e                	add	a0,a0,a5
}
    80001b80:	6108                	ld	a0,0(a0)
    80001b82:	6422                	ld	s0,8(sp)
    80001b84:	0141                	addi	sp,sp,16
    80001b86:	8082                	ret

0000000080001b88 <max>:

int max(int a, int b)
{
    80001b88:	1141                	addi	sp,sp,-16
    80001b8a:	e422                	sd	s0,8(sp)
    80001b8c:	0800                	addi	s0,sp,16
  return a > b ? a : b;
    80001b8e:	87ae                	mv	a5,a1
    80001b90:	00a5d363          	bge	a1,a0,80001b96 <max+0xe>
    80001b94:	87aa                	mv	a5,a0
}
    80001b96:	0007851b          	sext.w	a0,a5
    80001b9a:	6422                	ld	s0,8(sp)
    80001b9c:	0141                	addi	sp,sp,16
    80001b9e:	8082                	ret

0000000080001ba0 <min>:

int min(int a, int b)
{
    80001ba0:	1141                	addi	sp,sp,-16
    80001ba2:	e422                	sd	s0,8(sp)
    80001ba4:	0800                	addi	s0,sp,16
  return a < b ? a : b;
    80001ba6:	87ae                	mv	a5,a1
    80001ba8:	00b55363          	bge	a0,a1,80001bae <min+0xe>
    80001bac:	87aa                	mv	a5,a0
}
    80001bae:	0007851b          	sext.w	a0,a5
    80001bb2:	6422                	ld	s0,8(sp)
    80001bb4:	0141                	addi	sp,sp,16
    80001bb6:	8082                	ret

0000000080001bb8 <random>:

queue mlfq[5];

uint random(void)
{
    80001bb8:	1141                	addi	sp,sp,-16
    80001bba:	e422                	sd	s0,8(sp)
    80001bbc:	0800                	addi	s0,sp,16
  // Take from http://stackoverflow.com/questions/1167253/implementation-of-rand
  static unsigned int z1 = 12345, z2 = 12345, z3 = 12345, z4 = 12345;
  unsigned int b;
  b = ((z1 << 6) ^ z1) >> 13;
    80001bbe:	00008717          	auipc	a4,0x8
    80001bc2:	ea270713          	addi	a4,a4,-350 # 80009a60 <z1.1642>
    80001bc6:	431c                	lw	a5,0(a4)
    80001bc8:	0067961b          	slliw	a2,a5,0x6
    80001bcc:	8e3d                	xor	a2,a2,a5
    80001bce:	00d6569b          	srliw	a3,a2,0xd
  z1 = ((z1 & 4294967294U) << 18) ^ b;
    80001bd2:	0127961b          	slliw	a2,a5,0x12
    80001bd6:	fff807b7          	lui	a5,0xfff80
    80001bda:	8e7d                	and	a2,a2,a5
    80001bdc:	8e35                	xor	a2,a2,a3
    80001bde:	2601                	sext.w	a2,a2
    80001be0:	c310                	sw	a2,0(a4)
  b = ((z2 << 2) ^ z2) >> 27;
    80001be2:	00008597          	auipc	a1,0x8
    80001be6:	e7a58593          	addi	a1,a1,-390 # 80009a5c <z2.1643>
    80001bea:	4194                	lw	a3,0(a1)
    80001bec:	0026979b          	slliw	a5,a3,0x2
    80001bf0:	8ebd                	xor	a3,a3,a5
    80001bf2:	01b6d71b          	srliw	a4,a3,0x1b
  z2 = ((z2 & 4294967288U) << 2) ^ b;
    80001bf6:	fe07f693          	andi	a3,a5,-32
    80001bfa:	8eb9                	xor	a3,a3,a4
    80001bfc:	2681                	sext.w	a3,a3
    80001bfe:	c194                	sw	a3,0(a1)
  b = ((z3 << 13) ^ z3) >> 21;
    80001c00:	00008597          	auipc	a1,0x8
    80001c04:	e5858593          	addi	a1,a1,-424 # 80009a58 <z3.1644>
    80001c08:	419c                	lw	a5,0(a1)
    80001c0a:	00d7971b          	slliw	a4,a5,0xd
    80001c0e:	8f3d                	xor	a4,a4,a5
    80001c10:	0157551b          	srliw	a0,a4,0x15
  z3 = ((z3 & 4294967280U) << 7) ^ b;
    80001c14:	0077971b          	slliw	a4,a5,0x7
    80001c18:	80077713          	andi	a4,a4,-2048
    80001c1c:	8f29                	xor	a4,a4,a0
    80001c1e:	2701                	sext.w	a4,a4
    80001c20:	c198                	sw	a4,0(a1)
  b = ((z4 << 3) ^ z4) >> 12;
    80001c22:	00008817          	auipc	a6,0x8
    80001c26:	e3280813          	addi	a6,a6,-462 # 80009a54 <z4.1645>
    80001c2a:	00082783          	lw	a5,0(a6)
    80001c2e:	0037951b          	slliw	a0,a5,0x3
    80001c32:	8d3d                	xor	a0,a0,a5
    80001c34:	00c5559b          	srliw	a1,a0,0xc
  z4 = ((z4 & 4294967168U) << 13) ^ b;
    80001c38:	00d7951b          	slliw	a0,a5,0xd
    80001c3c:	fff007b7          	lui	a5,0xfff00
    80001c40:	8d7d                	and	a0,a0,a5
    80001c42:	8d2d                	xor	a0,a0,a1
    80001c44:	2501                	sext.w	a0,a0
    80001c46:	00a82023          	sw	a0,0(a6)

  return (z1 ^ z2 ^ z3 ^ z4) / 2;
    80001c4a:	8eb1                	xor	a3,a3,a2
    80001c4c:	8f35                	xor	a4,a4,a3
    80001c4e:	8d39                	xor	a0,a0,a4
}
    80001c50:	0015551b          	srliw	a0,a0,0x1
    80001c54:	6422                	ld	s0,8(sp)
    80001c56:	0141                	addi	sp,sp,16
    80001c58:	8082                	ret

0000000080001c5a <randomrange>:

int randomrange(int lo, int hi)
{
    80001c5a:	1101                	addi	sp,sp,-32
    80001c5c:	ec06                	sd	ra,24(sp)
    80001c5e:	e822                	sd	s0,16(sp)
    80001c60:	e426                	sd	s1,8(sp)
    80001c62:	e04a                	sd	s2,0(sp)
    80001c64:	1000                	addi	s0,sp,32
    80001c66:	892a                	mv	s2,a0
    80001c68:	84ae                	mv	s1,a1
  int range = hi - lo + 1;
  return random() % (range) + lo;
    80001c6a:	00000097          	auipc	ra,0x0
    80001c6e:	f4e080e7          	jalr	-178(ra) # 80001bb8 <random>
  int range = hi - lo + 1;
    80001c72:	412484bb          	subw	s1,s1,s2
    80001c76:	2485                	addiw	s1,s1,1
  return random() % (range) + lo;
    80001c78:	0295753b          	remuw	a0,a0,s1
}
    80001c7c:	0125053b          	addw	a0,a0,s2
    80001c80:	60e2                	ld	ra,24(sp)
    80001c82:	6442                	ld	s0,16(sp)
    80001c84:	64a2                	ld	s1,8(sp)
    80001c86:	6902                	ld	s2,0(sp)
    80001c88:	6105                	addi	sp,sp,32
    80001c8a:	8082                	ret

0000000080001c8c <proc_mapstacks>:

// Allocate a page for each process's kernel stack.
// Map it high in memory, followed by an invalid
// guard page.
void proc_mapstacks(pagetable_t kpgtbl)
{
    80001c8c:	7139                	addi	sp,sp,-64
    80001c8e:	fc06                	sd	ra,56(sp)
    80001c90:	f822                	sd	s0,48(sp)
    80001c92:	f426                	sd	s1,40(sp)
    80001c94:	f04a                	sd	s2,32(sp)
    80001c96:	ec4e                	sd	s3,24(sp)
    80001c98:	e852                	sd	s4,16(sp)
    80001c9a:	e456                	sd	s5,8(sp)
    80001c9c:	e05a                	sd	s6,0(sp)
    80001c9e:	0080                	addi	s0,sp,64
    80001ca0:	89aa                	mv	s3,a0
  struct proc *p;

  for (p = proc; p < &proc[NPROC]; p++)
    80001ca2:	00230497          	auipc	s1,0x230
    80001ca6:	64648493          	addi	s1,s1,1606 # 802322e8 <proc>
  {
    char *pa = kalloc();
    if (pa == 0)
      panic("kalloc");
    uint64 va = KSTACK((int)(p - proc));
    80001caa:	8b26                	mv	s6,s1
    80001cac:	00007a97          	auipc	s5,0x7
    80001cb0:	354a8a93          	addi	s5,s5,852 # 80009000 <etext>
    80001cb4:	04000937          	lui	s2,0x4000
    80001cb8:	197d                	addi	s2,s2,-1
    80001cba:	0932                	slli	s2,s2,0xc
  for (p = proc; p < &proc[NPROC]; p++)
    80001cbc:	0023aa17          	auipc	s4,0x23a
    80001cc0:	82ca0a13          	addi	s4,s4,-2004 # 8023b4e8 <mlfq>
    char *pa = kalloc();
    80001cc4:	fffff097          	auipc	ra,0xfffff
    80001cc8:	056080e7          	jalr	86(ra) # 80000d1a <kalloc>
    80001ccc:	862a                	mv	a2,a0
    if (pa == 0)
    80001cce:	c131                	beqz	a0,80001d12 <proc_mapstacks+0x86>
    uint64 va = KSTACK((int)(p - proc));
    80001cd0:	416485b3          	sub	a1,s1,s6
    80001cd4:	858d                	srai	a1,a1,0x3
    80001cd6:	000ab783          	ld	a5,0(s5)
    80001cda:	02f585b3          	mul	a1,a1,a5
    80001cde:	2585                	addiw	a1,a1,1
    80001ce0:	00d5959b          	slliw	a1,a1,0xd
    kvmmap(kpgtbl, va, (uint64)pa, PGSIZE, PTE_R | PTE_W);
    80001ce4:	4719                	li	a4,6
    80001ce6:	6685                	lui	a3,0x1
    80001ce8:	40b905b3          	sub	a1,s2,a1
    80001cec:	854e                	mv	a0,s3
    80001cee:	fffff097          	auipc	ra,0xfffff
    80001cf2:	698080e7          	jalr	1688(ra) # 80001386 <kvmmap>
  for (p = proc; p < &proc[NPROC]; p++)
    80001cf6:	24848493          	addi	s1,s1,584
    80001cfa:	fd4495e3          	bne	s1,s4,80001cc4 <proc_mapstacks+0x38>
  }
}
    80001cfe:	70e2                	ld	ra,56(sp)
    80001d00:	7442                	ld	s0,48(sp)
    80001d02:	74a2                	ld	s1,40(sp)
    80001d04:	7902                	ld	s2,32(sp)
    80001d06:	69e2                	ld	s3,24(sp)
    80001d08:	6a42                	ld	s4,16(sp)
    80001d0a:	6aa2                	ld	s5,8(sp)
    80001d0c:	6b02                	ld	s6,0(sp)
    80001d0e:	6121                	addi	sp,sp,64
    80001d10:	8082                	ret
      panic("kalloc");
    80001d12:	00007517          	auipc	a0,0x7
    80001d16:	4fe50513          	addi	a0,a0,1278 # 80009210 <digits+0x1d0>
    80001d1a:	fffff097          	auipc	ra,0xfffff
    80001d1e:	82a080e7          	jalr	-2006(ra) # 80000544 <panic>

0000000080001d22 <procinit>:

// initialize the proc table.
void procinit(void)
{
    80001d22:	7139                	addi	sp,sp,-64
    80001d24:	fc06                	sd	ra,56(sp)
    80001d26:	f822                	sd	s0,48(sp)
    80001d28:	f426                	sd	s1,40(sp)
    80001d2a:	f04a                	sd	s2,32(sp)
    80001d2c:	ec4e                	sd	s3,24(sp)
    80001d2e:	e852                	sd	s4,16(sp)
    80001d30:	e456                	sd	s5,8(sp)
    80001d32:	e05a                	sd	s6,0(sp)
    80001d34:	0080                	addi	s0,sp,64
  struct proc *p;

  initlock(&pid_lock, "nextpid");
    80001d36:	00007597          	auipc	a1,0x7
    80001d3a:	4e258593          	addi	a1,a1,1250 # 80009218 <digits+0x1d8>
    80001d3e:	00230517          	auipc	a0,0x230
    80001d42:	17a50513          	addi	a0,a0,378 # 80231eb8 <pid_lock>
    80001d46:	fffff097          	auipc	ra,0xfffff
    80001d4a:	040080e7          	jalr	64(ra) # 80000d86 <initlock>
  initlock(&wait_lock, "wait_lock");
    80001d4e:	00007597          	auipc	a1,0x7
    80001d52:	4d258593          	addi	a1,a1,1234 # 80009220 <digits+0x1e0>
    80001d56:	00230517          	auipc	a0,0x230
    80001d5a:	17a50513          	addi	a0,a0,378 # 80231ed0 <wait_lock>
    80001d5e:	fffff097          	auipc	ra,0xfffff
    80001d62:	028080e7          	jalr	40(ra) # 80000d86 <initlock>
  for (p = proc; p < &proc[NPROC]; p++)
    80001d66:	00230497          	auipc	s1,0x230
    80001d6a:	58248493          	addi	s1,s1,1410 # 802322e8 <proc>
  {
    initlock(&p->lock, "proc");
    80001d6e:	00007b17          	auipc	s6,0x7
    80001d72:	4c2b0b13          	addi	s6,s6,1218 # 80009230 <digits+0x1f0>
    p->state = UNUSED;
    p->kstack = KSTACK((int)(p - proc));
    80001d76:	8aa6                	mv	s5,s1
    80001d78:	00007a17          	auipc	s4,0x7
    80001d7c:	288a0a13          	addi	s4,s4,648 # 80009000 <etext>
    80001d80:	04000937          	lui	s2,0x4000
    80001d84:	197d                	addi	s2,s2,-1
    80001d86:	0932                	slli	s2,s2,0xc
  for (p = proc; p < &proc[NPROC]; p++)
    80001d88:	00239997          	auipc	s3,0x239
    80001d8c:	76098993          	addi	s3,s3,1888 # 8023b4e8 <mlfq>
    initlock(&p->lock, "proc");
    80001d90:	85da                	mv	a1,s6
    80001d92:	8526                	mv	a0,s1
    80001d94:	fffff097          	auipc	ra,0xfffff
    80001d98:	ff2080e7          	jalr	-14(ra) # 80000d86 <initlock>
    p->state = UNUSED;
    80001d9c:	0004ac23          	sw	zero,24(s1)
    p->kstack = KSTACK((int)(p - proc));
    80001da0:	415487b3          	sub	a5,s1,s5
    80001da4:	878d                	srai	a5,a5,0x3
    80001da6:	000a3703          	ld	a4,0(s4)
    80001daa:	02e787b3          	mul	a5,a5,a4
    80001dae:	2785                	addiw	a5,a5,1
    80001db0:	00d7979b          	slliw	a5,a5,0xd
    80001db4:	40f907b3          	sub	a5,s2,a5
    80001db8:	e0bc                	sd	a5,64(s1)
  for (p = proc; p < &proc[NPROC]; p++)
    80001dba:	24848493          	addi	s1,s1,584
    80001dbe:	fd3499e3          	bne	s1,s3,80001d90 <procinit+0x6e>
  }
}
    80001dc2:	70e2                	ld	ra,56(sp)
    80001dc4:	7442                	ld	s0,48(sp)
    80001dc6:	74a2                	ld	s1,40(sp)
    80001dc8:	7902                	ld	s2,32(sp)
    80001dca:	69e2                	ld	s3,24(sp)
    80001dcc:	6a42                	ld	s4,16(sp)
    80001dce:	6aa2                	ld	s5,8(sp)
    80001dd0:	6b02                	ld	s6,0(sp)
    80001dd2:	6121                	addi	sp,sp,64
    80001dd4:	8082                	ret

0000000080001dd6 <cpuid>:

// Must be called with interrupts disabled,
// to prevent race with process being moved
// to a different CPU.
int cpuid()
{
    80001dd6:	1141                	addi	sp,sp,-16
    80001dd8:	e422                	sd	s0,8(sp)
    80001dda:	0800                	addi	s0,sp,16
  asm volatile("mv %0, tp" : "=r" (x) );
    80001ddc:	8512                	mv	a0,tp
  int id = r_tp();
  return id;
}
    80001dde:	2501                	sext.w	a0,a0
    80001de0:	6422                	ld	s0,8(sp)
    80001de2:	0141                	addi	sp,sp,16
    80001de4:	8082                	ret

0000000080001de6 <mycpu>:

// Return this CPU's cpu struct.
// Interrupts must be disabled.
struct cpu *
mycpu(void)
{
    80001de6:	1141                	addi	sp,sp,-16
    80001de8:	e422                	sd	s0,8(sp)
    80001dea:	0800                	addi	s0,sp,16
    80001dec:	8792                	mv	a5,tp
  int id = cpuid();
  struct cpu *c = &cpus[id];
    80001dee:	2781                	sext.w	a5,a5
    80001df0:	079e                	slli	a5,a5,0x7
  return c;
}
    80001df2:	00230517          	auipc	a0,0x230
    80001df6:	0f650513          	addi	a0,a0,246 # 80231ee8 <cpus>
    80001dfa:	953e                	add	a0,a0,a5
    80001dfc:	6422                	ld	s0,8(sp)
    80001dfe:	0141                	addi	sp,sp,16
    80001e00:	8082                	ret

0000000080001e02 <myproc>:

// Return the current struct proc *, or zero if none.
struct proc *
myproc(void)
{
    80001e02:	1101                	addi	sp,sp,-32
    80001e04:	ec06                	sd	ra,24(sp)
    80001e06:	e822                	sd	s0,16(sp)
    80001e08:	e426                	sd	s1,8(sp)
    80001e0a:	1000                	addi	s0,sp,32
  push_off();
    80001e0c:	fffff097          	auipc	ra,0xfffff
    80001e10:	fbe080e7          	jalr	-66(ra) # 80000dca <push_off>
    80001e14:	8792                	mv	a5,tp
  struct cpu *c = mycpu();
  struct proc *p = c->proc;
    80001e16:	2781                	sext.w	a5,a5
    80001e18:	079e                	slli	a5,a5,0x7
    80001e1a:	00230717          	auipc	a4,0x230
    80001e1e:	09e70713          	addi	a4,a4,158 # 80231eb8 <pid_lock>
    80001e22:	97ba                	add	a5,a5,a4
    80001e24:	7b84                	ld	s1,48(a5)
  pop_off();
    80001e26:	fffff097          	auipc	ra,0xfffff
    80001e2a:	044080e7          	jalr	68(ra) # 80000e6a <pop_off>
  return p;
}
    80001e2e:	8526                	mv	a0,s1
    80001e30:	60e2                	ld	ra,24(sp)
    80001e32:	6442                	ld	s0,16(sp)
    80001e34:	64a2                	ld	s1,8(sp)
    80001e36:	6105                	addi	sp,sp,32
    80001e38:	8082                	ret

0000000080001e3a <forkret>:
}

// A fork child's very first scheduling by scheduler()
// will swtch to forkret.
void forkret(void)
{
    80001e3a:	1141                	addi	sp,sp,-16
    80001e3c:	e406                	sd	ra,8(sp)
    80001e3e:	e022                	sd	s0,0(sp)
    80001e40:	0800                	addi	s0,sp,16
  static int first = 1;

  // Still holding p->lock from scheduler.
  release(&myproc()->lock);
    80001e42:	00000097          	auipc	ra,0x0
    80001e46:	fc0080e7          	jalr	-64(ra) # 80001e02 <myproc>
    80001e4a:	fffff097          	auipc	ra,0xfffff
    80001e4e:	080080e7          	jalr	128(ra) # 80000eca <release>

  if (first)
    80001e52:	00008797          	auipc	a5,0x8
    80001e56:	bfe7a783          	lw	a5,-1026(a5) # 80009a50 <first.1858>
    80001e5a:	eb89                	bnez	a5,80001e6c <forkret+0x32>
    // be run from main().
    first = 0;
    fsinit(ROOTDEV);
  }

  usertrapret();
    80001e5c:	00001097          	auipc	ra,0x1
    80001e60:	5ba080e7          	jalr	1466(ra) # 80003416 <usertrapret>
}
    80001e64:	60a2                	ld	ra,8(sp)
    80001e66:	6402                	ld	s0,0(sp)
    80001e68:	0141                	addi	sp,sp,16
    80001e6a:	8082                	ret
    first = 0;
    80001e6c:	00008797          	auipc	a5,0x8
    80001e70:	be07a223          	sw	zero,-1052(a5) # 80009a50 <first.1858>
    fsinit(ROOTDEV);
    80001e74:	4505                	li	a0,1
    80001e76:	00002097          	auipc	ra,0x2
    80001e7a:	6a8080e7          	jalr	1704(ra) # 8000451e <fsinit>
    80001e7e:	bff9                	j	80001e5c <forkret+0x22>

0000000080001e80 <priority>:
{
    80001e80:	1141                	addi	sp,sp,-16
    80001e82:	e422                	sd	s0,8(sp)
    80001e84:	0800                	addi	s0,sp,16
  p->niceness = 5;
    80001e86:	4795                	li	a5,5
    80001e88:	18f52a23          	sw	a5,404(a0)
  if (p->run_time + p->sleep_time)
    80001e8c:	1b853683          	ld	a3,440(a0)
    80001e90:	1a853783          	ld	a5,424(a0)
    80001e94:	97b6                	add	a5,a5,a3
    80001e96:	cb89                	beqz	a5,80001ea8 <priority+0x28>
    p->niceness = (p->sleep_time * 10 / (p->run_time + p->sleep_time));
    80001e98:	00269713          	slli	a4,a3,0x2
    80001e9c:	9736                	add	a4,a4,a3
    80001e9e:	0706                	slli	a4,a4,0x1
    80001ea0:	02f757b3          	divu	a5,a4,a5
    80001ea4:	18f52a23          	sw	a5,404(a0)
  uint64 DP = max(0, min(p->stat_priority - p->niceness + 5, 100));
    80001ea8:	19052783          	lw	a5,400(a0)
    80001eac:	19452503          	lw	a0,404(a0)
    80001eb0:	40a7853b          	subw	a0,a5,a0
    80001eb4:	2515                	addiw	a0,a0,5
  return a < b ? a : b;
    80001eb6:	0005071b          	sext.w	a4,a0
    80001eba:	06400793          	li	a5,100
    80001ebe:	00e7d463          	bge	a5,a4,80001ec6 <priority+0x46>
    80001ec2:	06400513          	li	a0,100
  return a > b ? a : b;
    80001ec6:	0005079b          	sext.w	a5,a0
    80001eca:	fff7c793          	not	a5,a5
    80001ece:	97fd                	srai	a5,a5,0x3f
    80001ed0:	8d7d                	and	a0,a0,a5
}
    80001ed2:	2501                	sext.w	a0,a0
    80001ed4:	6422                	ld	s0,8(sp)
    80001ed6:	0141                	addi	sp,sp,16
    80001ed8:	8082                	ret

0000000080001eda <allocpid>:
{
    80001eda:	1101                	addi	sp,sp,-32
    80001edc:	ec06                	sd	ra,24(sp)
    80001ede:	e822                	sd	s0,16(sp)
    80001ee0:	e426                	sd	s1,8(sp)
    80001ee2:	e04a                	sd	s2,0(sp)
    80001ee4:	1000                	addi	s0,sp,32
  acquire(&pid_lock);
    80001ee6:	00230917          	auipc	s2,0x230
    80001eea:	fd290913          	addi	s2,s2,-46 # 80231eb8 <pid_lock>
    80001eee:	854a                	mv	a0,s2
    80001ef0:	fffff097          	auipc	ra,0xfffff
    80001ef4:	f26080e7          	jalr	-218(ra) # 80000e16 <acquire>
  pid = nextpid;
    80001ef8:	00008797          	auipc	a5,0x8
    80001efc:	b6c78793          	addi	a5,a5,-1172 # 80009a64 <nextpid>
    80001f00:	4384                	lw	s1,0(a5)
  nextpid = nextpid + 1;
    80001f02:	0014871b          	addiw	a4,s1,1
    80001f06:	c398                	sw	a4,0(a5)
  release(&pid_lock);
    80001f08:	854a                	mv	a0,s2
    80001f0a:	fffff097          	auipc	ra,0xfffff
    80001f0e:	fc0080e7          	jalr	-64(ra) # 80000eca <release>
}
    80001f12:	8526                	mv	a0,s1
    80001f14:	60e2                	ld	ra,24(sp)
    80001f16:	6442                	ld	s0,16(sp)
    80001f18:	64a2                	ld	s1,8(sp)
    80001f1a:	6902                	ld	s2,0(sp)
    80001f1c:	6105                	addi	sp,sp,32
    80001f1e:	8082                	ret

0000000080001f20 <queue_swap>:
{
    80001f20:	1141                	addi	sp,sp,-16
    80001f22:	e422                	sd	s0,8(sp)
    80001f24:	0800                	addi	s0,sp,16
  for (int curr = q->front; curr != q->rear; curr = (curr + 1) % (NPROC + 1))
    80001f26:	415c                	lw	a5,4(a0)
    80001f28:	4510                	lw	a2,8(a0)
    80001f2a:	02c78b63          	beq	a5,a2,80001f60 <queue_swap+0x40>
      q->arr[curr] = q->arr[(curr + 1) % (NPROC + 1)];
    80001f2e:	04100813          	li	a6,65
    80001f32:	a031                	j	80001f3e <queue_swap+0x1e>
  for (int curr = q->front; curr != q->rear; curr = (curr + 1) % (NPROC + 1))
    80001f34:	2785                	addiw	a5,a5,1
    80001f36:	0307e7bb          	remw	a5,a5,a6
    80001f3a:	02c78363          	beq	a5,a2,80001f60 <queue_swap+0x40>
    if (q->arr[curr]->pid == pid)
    80001f3e:	00379713          	slli	a4,a5,0x3
    80001f42:	972a                	add	a4,a4,a0
    80001f44:	6b14                	ld	a3,16(a4)
    80001f46:	5a94                	lw	a3,48(a3)
    80001f48:	feb696e3          	bne	a3,a1,80001f34 <queue_swap+0x14>
      q->arr[curr] = q->arr[(curr + 1) % (NPROC + 1)];
    80001f4c:	0017869b          	addiw	a3,a5,1
    80001f50:	0306e6bb          	remw	a3,a3,a6
    80001f54:	0689                	addi	a3,a3,2
    80001f56:	068e                	slli	a3,a3,0x3
    80001f58:	96aa                	add	a3,a3,a0
    80001f5a:	6294                	ld	a3,0(a3)
    80001f5c:	eb14                	sd	a3,16(a4)
    80001f5e:	bfd9                	j	80001f34 <queue_swap+0x14>
  q->rear--;
    80001f60:	367d                	addiw	a2,a2,-1
  if (q->rear < 0)
    80001f62:	02061793          	slli	a5,a2,0x20
    80001f66:	0007cb63          	bltz	a5,80001f7c <queue_swap+0x5c>
  q->rear--;
    80001f6a:	c510                	sw	a2,8(a0)
  q->numitems--;
    80001f6c:	21852783          	lw	a5,536(a0)
    80001f70:	37fd                	addiw	a5,a5,-1
    80001f72:	20f52c23          	sw	a5,536(a0)
}
    80001f76:	6422                	ld	s0,8(sp)
    80001f78:	0141                	addi	sp,sp,16
    80001f7a:	8082                	ret
    q->rear = NPROC;
    80001f7c:	04000793          	li	a5,64
    80001f80:	c51c                	sw	a5,8(a0)
    80001f82:	b7ed                	j	80001f6c <queue_swap+0x4c>

0000000080001f84 <proc_pagetable>:
{
    80001f84:	1101                	addi	sp,sp,-32
    80001f86:	ec06                	sd	ra,24(sp)
    80001f88:	e822                	sd	s0,16(sp)
    80001f8a:	e426                	sd	s1,8(sp)
    80001f8c:	e04a                	sd	s2,0(sp)
    80001f8e:	1000                	addi	s0,sp,32
    80001f90:	892a                	mv	s2,a0
  pagetable = uvmcreate();
    80001f92:	fffff097          	auipc	ra,0xfffff
    80001f96:	5de080e7          	jalr	1502(ra) # 80001570 <uvmcreate>
    80001f9a:	84aa                	mv	s1,a0
  if (pagetable == 0)
    80001f9c:	c121                	beqz	a0,80001fdc <proc_pagetable+0x58>
  if (mappages(pagetable, TRAMPOLINE, PGSIZE,
    80001f9e:	4729                	li	a4,10
    80001fa0:	00006697          	auipc	a3,0x6
    80001fa4:	06068693          	addi	a3,a3,96 # 80008000 <_trampoline>
    80001fa8:	6605                	lui	a2,0x1
    80001faa:	040005b7          	lui	a1,0x4000
    80001fae:	15fd                	addi	a1,a1,-1
    80001fb0:	05b2                	slli	a1,a1,0xc
    80001fb2:	fffff097          	auipc	ra,0xfffff
    80001fb6:	334080e7          	jalr	820(ra) # 800012e6 <mappages>
    80001fba:	02054863          	bltz	a0,80001fea <proc_pagetable+0x66>
  if (mappages(pagetable, TRAPFRAME, PGSIZE,
    80001fbe:	4719                	li	a4,6
    80001fc0:	05893683          	ld	a3,88(s2)
    80001fc4:	6605                	lui	a2,0x1
    80001fc6:	020005b7          	lui	a1,0x2000
    80001fca:	15fd                	addi	a1,a1,-1
    80001fcc:	05b6                	slli	a1,a1,0xd
    80001fce:	8526                	mv	a0,s1
    80001fd0:	fffff097          	auipc	ra,0xfffff
    80001fd4:	316080e7          	jalr	790(ra) # 800012e6 <mappages>
    80001fd8:	02054163          	bltz	a0,80001ffa <proc_pagetable+0x76>
}
    80001fdc:	8526                	mv	a0,s1
    80001fde:	60e2                	ld	ra,24(sp)
    80001fe0:	6442                	ld	s0,16(sp)
    80001fe2:	64a2                	ld	s1,8(sp)
    80001fe4:	6902                	ld	s2,0(sp)
    80001fe6:	6105                	addi	sp,sp,32
    80001fe8:	8082                	ret
    uvmfree(pagetable, 0);
    80001fea:	4581                	li	a1,0
    80001fec:	8526                	mv	a0,s1
    80001fee:	fffff097          	auipc	ra,0xfffff
    80001ff2:	786080e7          	jalr	1926(ra) # 80001774 <uvmfree>
    return 0;
    80001ff6:	4481                	li	s1,0
    80001ff8:	b7d5                	j	80001fdc <proc_pagetable+0x58>
    uvmunmap(pagetable, TRAMPOLINE, 1, 0);
    80001ffa:	4681                	li	a3,0
    80001ffc:	4605                	li	a2,1
    80001ffe:	040005b7          	lui	a1,0x4000
    80002002:	15fd                	addi	a1,a1,-1
    80002004:	05b2                	slli	a1,a1,0xc
    80002006:	8526                	mv	a0,s1
    80002008:	fffff097          	auipc	ra,0xfffff
    8000200c:	4a4080e7          	jalr	1188(ra) # 800014ac <uvmunmap>
    uvmfree(pagetable, 0);
    80002010:	4581                	li	a1,0
    80002012:	8526                	mv	a0,s1
    80002014:	fffff097          	auipc	ra,0xfffff
    80002018:	760080e7          	jalr	1888(ra) # 80001774 <uvmfree>
    return 0;
    8000201c:	4481                	li	s1,0
    8000201e:	bf7d                	j	80001fdc <proc_pagetable+0x58>

0000000080002020 <proc_freepagetable>:
{
    80002020:	1101                	addi	sp,sp,-32
    80002022:	ec06                	sd	ra,24(sp)
    80002024:	e822                	sd	s0,16(sp)
    80002026:	e426                	sd	s1,8(sp)
    80002028:	e04a                	sd	s2,0(sp)
    8000202a:	1000                	addi	s0,sp,32
    8000202c:	84aa                	mv	s1,a0
    8000202e:	892e                	mv	s2,a1
  uvmunmap(pagetable, TRAMPOLINE, 1, 0);
    80002030:	4681                	li	a3,0
    80002032:	4605                	li	a2,1
    80002034:	040005b7          	lui	a1,0x4000
    80002038:	15fd                	addi	a1,a1,-1
    8000203a:	05b2                	slli	a1,a1,0xc
    8000203c:	fffff097          	auipc	ra,0xfffff
    80002040:	470080e7          	jalr	1136(ra) # 800014ac <uvmunmap>
  uvmunmap(pagetable, TRAPFRAME, 1, 0);
    80002044:	4681                	li	a3,0
    80002046:	4605                	li	a2,1
    80002048:	020005b7          	lui	a1,0x2000
    8000204c:	15fd                	addi	a1,a1,-1
    8000204e:	05b6                	slli	a1,a1,0xd
    80002050:	8526                	mv	a0,s1
    80002052:	fffff097          	auipc	ra,0xfffff
    80002056:	45a080e7          	jalr	1114(ra) # 800014ac <uvmunmap>
  uvmfree(pagetable, sz);
    8000205a:	85ca                	mv	a1,s2
    8000205c:	8526                	mv	a0,s1
    8000205e:	fffff097          	auipc	ra,0xfffff
    80002062:	716080e7          	jalr	1814(ra) # 80001774 <uvmfree>
}
    80002066:	60e2                	ld	ra,24(sp)
    80002068:	6442                	ld	s0,16(sp)
    8000206a:	64a2                	ld	s1,8(sp)
    8000206c:	6902                	ld	s2,0(sp)
    8000206e:	6105                	addi	sp,sp,32
    80002070:	8082                	ret

0000000080002072 <freeproc>:
  if (p)
    80002072:	c525                	beqz	a0,800020da <freeproc+0x68>
{
    80002074:	1101                	addi	sp,sp,-32
    80002076:	ec06                	sd	ra,24(sp)
    80002078:	e822                	sd	s0,16(sp)
    8000207a:	e426                	sd	s1,8(sp)
    8000207c:	1000                	addi	s0,sp,32
    8000207e:	84aa                	mv	s1,a0
    if (p->trapframe)
    80002080:	6d28                	ld	a0,88(a0)
    80002082:	c509                	beqz	a0,8000208c <freeproc+0x1a>
      kfree((void *)p->trapframe);
    80002084:	fffff097          	auipc	ra,0xfffff
    80002088:	b0e080e7          	jalr	-1266(ra) # 80000b92 <kfree>
    if (p->cpy_trapframe)
    8000208c:	1884b503          	ld	a0,392(s1)
    80002090:	c509                	beqz	a0,8000209a <freeproc+0x28>
      kfree((void *)p->cpy_trapframe);
    80002092:	fffff097          	auipc	ra,0xfffff
    80002096:	b00080e7          	jalr	-1280(ra) # 80000b92 <kfree>
    p->trapframe = 0;
    8000209a:	0404bc23          	sd	zero,88(s1)
    if (p->pagetable)
    8000209e:	68a8                	ld	a0,80(s1)
    800020a0:	c511                	beqz	a0,800020ac <freeproc+0x3a>
      proc_freepagetable(p->pagetable, p->sz);
    800020a2:	64ac                	ld	a1,72(s1)
    800020a4:	00000097          	auipc	ra,0x0
    800020a8:	f7c080e7          	jalr	-132(ra) # 80002020 <proc_freepagetable>
    p->pagetable = 0;
    800020ac:	0404b823          	sd	zero,80(s1)
    p->sz = 0;
    800020b0:	0404b423          	sd	zero,72(s1)
    p->pid = 0;
    800020b4:	0204a823          	sw	zero,48(s1)
    p->parent = 0;
    800020b8:	0204bc23          	sd	zero,56(s1)
    p->name[0] = 0;
    800020bc:	14048c23          	sb	zero,344(s1)
    p->chan = 0;
    800020c0:	0204b023          	sd	zero,32(s1)
    p->killed = 0;
    800020c4:	0204a423          	sw	zero,40(s1)
    p->xstate = 0;
    800020c8:	0204a623          	sw	zero,44(s1)
    p->state = UNUSED;
    800020cc:	0004ac23          	sw	zero,24(s1)
}
    800020d0:	60e2                	ld	ra,24(sp)
    800020d2:	6442                	ld	s0,16(sp)
    800020d4:	64a2                	ld	s1,8(sp)
    800020d6:	6105                	addi	sp,sp,32
    800020d8:	8082                	ret
    800020da:	8082                	ret

00000000800020dc <allocproc>:
{
    800020dc:	1101                	addi	sp,sp,-32
    800020de:	ec06                	sd	ra,24(sp)
    800020e0:	e822                	sd	s0,16(sp)
    800020e2:	e426                	sd	s1,8(sp)
    800020e4:	e04a                	sd	s2,0(sp)
    800020e6:	1000                	addi	s0,sp,32
  for (p = proc; p < &proc[NPROC]; p++)
    800020e8:	00230497          	auipc	s1,0x230
    800020ec:	20048493          	addi	s1,s1,512 # 802322e8 <proc>
    800020f0:	00239917          	auipc	s2,0x239
    800020f4:	3f890913          	addi	s2,s2,1016 # 8023b4e8 <mlfq>
    acquire(&p->lock);
    800020f8:	8526                	mv	a0,s1
    800020fa:	fffff097          	auipc	ra,0xfffff
    800020fe:	d1c080e7          	jalr	-740(ra) # 80000e16 <acquire>
    if (p->state == UNUSED)
    80002102:	4c9c                	lw	a5,24(s1)
    80002104:	cf81                	beqz	a5,8000211c <allocproc+0x40>
      release(&p->lock);
    80002106:	8526                	mv	a0,s1
    80002108:	fffff097          	auipc	ra,0xfffff
    8000210c:	dc2080e7          	jalr	-574(ra) # 80000eca <release>
  for (p = proc; p < &proc[NPROC]; p++)
    80002110:	24848493          	addi	s1,s1,584
    80002114:	ff2492e3          	bne	s1,s2,800020f8 <allocproc+0x1c>
  return 0;
    80002118:	4481                	li	s1,0
    8000211a:	a281                	j	8000225a <allocproc+0x17e>
  p->pid = allocpid();
    8000211c:	00000097          	auipc	ra,0x0
    80002120:	dbe080e7          	jalr	-578(ra) # 80001eda <allocpid>
    80002124:	d888                	sw	a0,48(s1)
  p->state = USED;
    80002126:	4785                	li	a5,1
    80002128:	cc9c                	sw	a5,24(s1)
  p->init_time = ticks;
    8000212a:	00008797          	auipc	a5,0x8
    8000212e:	b067e783          	lwu	a5,-1274(a5) # 80009c30 <ticks>
    80002132:	18f4bc23          	sd	a5,408(s1)
  p->run_time = 0;
    80002136:	1a04b423          	sd	zero,424(s1)
  p->end_time = 0;
    8000213a:	1a04b823          	sd	zero,432(s1)
  p->sleep_time = 0;
    8000213e:	1a04bc23          	sd	zero,440(s1)
  p->runs_till_now = 0;
    80002142:	1e04b423          	sd	zero,488(s1)
  p->tickets = 1;
    80002146:	4785                	li	a5,1
    80002148:	18f4b023          	sd	a5,384(s1)
  if ((p->trapframe = (struct trapframe *)kalloc()) == 0)
    8000214c:	fffff097          	auipc	ra,0xfffff
    80002150:	bce080e7          	jalr	-1074(ra) # 80000d1a <kalloc>
    80002154:	892a                	mv	s2,a0
    80002156:	eca8                	sd	a0,88(s1)
    80002158:	10050863          	beqz	a0,80002268 <allocproc+0x18c>
  if ((p->cpy_trapframe = (struct trapframe *)kalloc()) == 0)
    8000215c:	fffff097          	auipc	ra,0xfffff
    80002160:	bbe080e7          	jalr	-1090(ra) # 80000d1a <kalloc>
    80002164:	892a                	mv	s2,a0
    80002166:	18a4b423          	sd	a0,392(s1)
    8000216a:	10050b63          	beqz	a0,80002280 <allocproc+0x1a4>
  p->mlfq_priority = 0;
    8000216e:	1c04b823          	sd	zero,464(s1)
  p->queue_in_time = 0;
    80002172:	1e04b823          	sd	zero,496(s1)
  p->runs_till_now = 0;
    80002176:	1e04b423          	sd	zero,488(s1)
    p->queue_run_time[i] = 0;
    8000217a:	1e04bc23          	sd	zero,504(s1)
    8000217e:	2004b023          	sd	zero,512(s1)
    80002182:	2004b423          	sd	zero,520(s1)
    80002186:	2004b823          	sd	zero,528(s1)
    8000218a:	2004bc23          	sd	zero,536(s1)
  p->queued = 0;
    8000218e:	1c04bc23          	sd	zero,472(s1)
  p->quantums_left = 1;
    80002192:	4785                	li	a5,1
    80002194:	1ef4b023          	sd	a5,480(s1)
  p->stat_priority = 60;
    80002198:	03c00793          	li	a5,60
    8000219c:	18f4a823          	sw	a5,400(s1)
  p->niceness = 5;
    800021a0:	4795                	li	a5,5
    800021a2:	18f4aa23          	sw	a5,404(s1)
  p->is_sigalarm = 0;
    800021a6:	1604a623          	sw	zero,364(s1)
  p->clockval = 0;
    800021aa:	1604a823          	sw	zero,368(s1)
  p->completed_clockval = 0;
    800021ae:	1604aa23          	sw	zero,372(s1)
  p->handler = 0;
    800021b2:	1604bc23          	sd	zero,376(s1)
  p->age_queue[0] = -10;
    800021b6:	57d9                	li	a5,-10
    800021b8:	22f4b023          	sd	a5,544(s1)
  p->age_queue[1] = 10;
    800021bc:	47a9                	li	a5,10
    800021be:	22f4b423          	sd	a5,552(s1)
  p->age_queue[2] = 20;
    800021c2:	47d1                	li	a5,20
    800021c4:	22f4b823          	sd	a5,560(s1)
  p->age_queue[3] = 30;
    800021c8:	47f9                	li	a5,30
    800021ca:	22f4bc23          	sd	a5,568(s1)
  p->age_queue[4] = 40;
    800021ce:	02800793          	li	a5,40
    800021d2:	24f4b023          	sd	a5,576(s1)
  p->wait_time = 0;
    800021d6:	1a04b023          	sd	zero,416(s1)
    mlfq[i] = Create_Queue();
    800021da:	00239797          	auipc	a5,0x239
    800021de:	30e78793          	addi	a5,a5,782 # 8023b4e8 <mlfq>
    800021e2:	0007a223          	sw	zero,4(a5)
    800021e6:	0007a423          	sw	zero,8(a5)
    800021ea:	2007ac23          	sw	zero,536(a5)
    800021ee:	2207a223          	sw	zero,548(a5)
    800021f2:	2207a423          	sw	zero,552(a5)
    800021f6:	4207ac23          	sw	zero,1080(a5)
    800021fa:	4407a223          	sw	zero,1092(a5)
    800021fe:	4407a423          	sw	zero,1096(a5)
    80002202:	6407ac23          	sw	zero,1624(a5)
    80002206:	6607a223          	sw	zero,1636(a5)
    8000220a:	6607a423          	sw	zero,1640(a5)
    8000220e:	0023a797          	auipc	a5,0x23a
    80002212:	2da78793          	addi	a5,a5,730 # 8023c4e8 <bcache+0x548>
    80002216:	8607ac23          	sw	zero,-1928(a5)
    8000221a:	8807a223          	sw	zero,-1916(a5)
    8000221e:	8807a423          	sw	zero,-1912(a5)
    80002222:	a807ac23          	sw	zero,-1384(a5)
  p->pagetable = proc_pagetable(p);
    80002226:	8526                	mv	a0,s1
    80002228:	00000097          	auipc	ra,0x0
    8000222c:	d5c080e7          	jalr	-676(ra) # 80001f84 <proc_pagetable>
    80002230:	892a                	mv	s2,a0
    80002232:	e8a8                	sd	a0,80(s1)
  if (p->pagetable == 0)
    80002234:	cd29                	beqz	a0,8000228e <allocproc+0x1b2>
  memset(&p->context, 0, sizeof(p->context));
    80002236:	07000613          	li	a2,112
    8000223a:	4581                	li	a1,0
    8000223c:	06048513          	addi	a0,s1,96
    80002240:	fffff097          	auipc	ra,0xfffff
    80002244:	cd2080e7          	jalr	-814(ra) # 80000f12 <memset>
  p->context.ra = (uint64)forkret;
    80002248:	00000797          	auipc	a5,0x0
    8000224c:	bf278793          	addi	a5,a5,-1038 # 80001e3a <forkret>
    80002250:	f0bc                	sd	a5,96(s1)
  p->context.sp = p->kstack + PGSIZE;
    80002252:	60bc                	ld	a5,64(s1)
    80002254:	6705                	lui	a4,0x1
    80002256:	97ba                	add	a5,a5,a4
    80002258:	f4bc                	sd	a5,104(s1)
}
    8000225a:	8526                	mv	a0,s1
    8000225c:	60e2                	ld	ra,24(sp)
    8000225e:	6442                	ld	s0,16(sp)
    80002260:	64a2                	ld	s1,8(sp)
    80002262:	6902                	ld	s2,0(sp)
    80002264:	6105                	addi	sp,sp,32
    80002266:	8082                	ret
    freeproc(p);
    80002268:	8526                	mv	a0,s1
    8000226a:	00000097          	auipc	ra,0x0
    8000226e:	e08080e7          	jalr	-504(ra) # 80002072 <freeproc>
    release(&p->lock);
    80002272:	8526                	mv	a0,s1
    80002274:	fffff097          	auipc	ra,0xfffff
    80002278:	c56080e7          	jalr	-938(ra) # 80000eca <release>
    return 0;
    8000227c:	84ca                	mv	s1,s2
    8000227e:	bff1                	j	8000225a <allocproc+0x17e>
    release(&p->lock);
    80002280:	8526                	mv	a0,s1
    80002282:	fffff097          	auipc	ra,0xfffff
    80002286:	c48080e7          	jalr	-952(ra) # 80000eca <release>
    return 0;
    8000228a:	84ca                	mv	s1,s2
    8000228c:	b7f9                	j	8000225a <allocproc+0x17e>
    freeproc(p);
    8000228e:	8526                	mv	a0,s1
    80002290:	00000097          	auipc	ra,0x0
    80002294:	de2080e7          	jalr	-542(ra) # 80002072 <freeproc>
    release(&p->lock);
    80002298:	8526                	mv	a0,s1
    8000229a:	fffff097          	auipc	ra,0xfffff
    8000229e:	c30080e7          	jalr	-976(ra) # 80000eca <release>
    return 0;
    800022a2:	84ca                	mv	s1,s2
    800022a4:	bf5d                	j	8000225a <allocproc+0x17e>

00000000800022a6 <userinit>:
{
    800022a6:	1101                	addi	sp,sp,-32
    800022a8:	ec06                	sd	ra,24(sp)
    800022aa:	e822                	sd	s0,16(sp)
    800022ac:	e426                	sd	s1,8(sp)
    800022ae:	1000                	addi	s0,sp,32
  p = allocproc();
    800022b0:	00000097          	auipc	ra,0x0
    800022b4:	e2c080e7          	jalr	-468(ra) # 800020dc <allocproc>
    800022b8:	84aa                	mv	s1,a0
  initproc = p;
    800022ba:	00008797          	auipc	a5,0x8
    800022be:	96a7b723          	sd	a0,-1682(a5) # 80009c28 <initproc>
  uvmfirst(p->pagetable, initcode, sizeof(initcode));
    800022c2:	03400613          	li	a2,52
    800022c6:	00007597          	auipc	a1,0x7
    800022ca:	7aa58593          	addi	a1,a1,1962 # 80009a70 <initcode>
    800022ce:	6928                	ld	a0,80(a0)
    800022d0:	fffff097          	auipc	ra,0xfffff
    800022d4:	2ce080e7          	jalr	718(ra) # 8000159e <uvmfirst>
  p->sz = PGSIZE;
    800022d8:	6785                	lui	a5,0x1
    800022da:	e4bc                	sd	a5,72(s1)
  p->trapframe->epc = 0;     // user program counter
    800022dc:	6cb8                	ld	a4,88(s1)
    800022de:	00073c23          	sd	zero,24(a4) # 1018 <_entry-0x7fffefe8>
  p->trapframe->sp = PGSIZE; // user stack pointer
    800022e2:	6cb8                	ld	a4,88(s1)
    800022e4:	fb1c                	sd	a5,48(a4)
  safestrcpy(p->name, "initcode", sizeof(p->name));
    800022e6:	4641                	li	a2,16
    800022e8:	00007597          	auipc	a1,0x7
    800022ec:	f5058593          	addi	a1,a1,-176 # 80009238 <digits+0x1f8>
    800022f0:	15848513          	addi	a0,s1,344
    800022f4:	fffff097          	auipc	ra,0xfffff
    800022f8:	d70080e7          	jalr	-656(ra) # 80001064 <safestrcpy>
  p->cwd = namei("/");
    800022fc:	00007517          	auipc	a0,0x7
    80002300:	f4c50513          	addi	a0,a0,-180 # 80009248 <digits+0x208>
    80002304:	00003097          	auipc	ra,0x3
    80002308:	c3c080e7          	jalr	-964(ra) # 80004f40 <namei>
    8000230c:	14a4b823          	sd	a0,336(s1)
  p->state = RUNNABLE;
    80002310:	478d                	li	a5,3
    80002312:	cc9c                	sw	a5,24(s1)
  if (p && !p->queued)
    80002314:	1d84b783          	ld	a5,472(s1)
    80002318:	cb99                	beqz	a5,8000232e <userinit+0x88>
  release(&p->lock);
    8000231a:	8526                	mv	a0,s1
    8000231c:	fffff097          	auipc	ra,0xfffff
    80002320:	bae080e7          	jalr	-1106(ra) # 80000eca <release>
}
    80002324:	60e2                	ld	ra,24(sp)
    80002326:	6442                	ld	s0,16(sp)
    80002328:	64a2                	ld	s1,8(sp)
    8000232a:	6105                	addi	sp,sp,32
    8000232c:	8082                	ret
    enqueue(&mlfq[0], p);
    8000232e:	85a6                	mv	a1,s1
    80002330:	00239517          	auipc	a0,0x239
    80002334:	1b850513          	addi	a0,a0,440 # 8023b4e8 <mlfq>
    80002338:	fffff097          	auipc	ra,0xfffff
    8000233c:	7a0080e7          	jalr	1952(ra) # 80001ad8 <enqueue>
    p->queue_in_time = ticks;
    80002340:	00008797          	auipc	a5,0x8
    80002344:	8f07e783          	lwu	a5,-1808(a5) # 80009c30 <ticks>
    80002348:	1ef4b823          	sd	a5,496(s1)
    p->queued = 1;
    8000234c:	4785                	li	a5,1
    8000234e:	1cf4bc23          	sd	a5,472(s1)
    p->mlfq_priority = 0;
    80002352:	1c04b823          	sd	zero,464(s1)
    p->wait_time = 0;
    80002356:	1a04b023          	sd	zero,416(s1)
    8000235a:	b7c1                	j	8000231a <userinit+0x74>

000000008000235c <growproc>:
{
    8000235c:	1101                	addi	sp,sp,-32
    8000235e:	ec06                	sd	ra,24(sp)
    80002360:	e822                	sd	s0,16(sp)
    80002362:	e426                	sd	s1,8(sp)
    80002364:	e04a                	sd	s2,0(sp)
    80002366:	1000                	addi	s0,sp,32
    80002368:	892a                	mv	s2,a0
  struct proc *p = myproc();
    8000236a:	00000097          	auipc	ra,0x0
    8000236e:	a98080e7          	jalr	-1384(ra) # 80001e02 <myproc>
    80002372:	84aa                	mv	s1,a0
  sz = p->sz;
    80002374:	652c                	ld	a1,72(a0)
  if (n > 0)
    80002376:	01204c63          	bgtz	s2,8000238e <growproc+0x32>
  else if (n < 0)
    8000237a:	02094663          	bltz	s2,800023a6 <growproc+0x4a>
  p->sz = sz;
    8000237e:	e4ac                	sd	a1,72(s1)
  return 0;
    80002380:	4501                	li	a0,0
}
    80002382:	60e2                	ld	ra,24(sp)
    80002384:	6442                	ld	s0,16(sp)
    80002386:	64a2                	ld	s1,8(sp)
    80002388:	6902                	ld	s2,0(sp)
    8000238a:	6105                	addi	sp,sp,32
    8000238c:	8082                	ret
    if ((sz = uvmalloc(p->pagetable, sz, sz + n, PTE_W)) == 0)
    8000238e:	4691                	li	a3,4
    80002390:	00b90633          	add	a2,s2,a1
    80002394:	6928                	ld	a0,80(a0)
    80002396:	fffff097          	auipc	ra,0xfffff
    8000239a:	2c2080e7          	jalr	706(ra) # 80001658 <uvmalloc>
    8000239e:	85aa                	mv	a1,a0
    800023a0:	fd79                	bnez	a0,8000237e <growproc+0x22>
      return -1;
    800023a2:	557d                	li	a0,-1
    800023a4:	bff9                	j	80002382 <growproc+0x26>
    sz = uvmdealloc(p->pagetable, sz, sz + n);
    800023a6:	00b90633          	add	a2,s2,a1
    800023aa:	6928                	ld	a0,80(a0)
    800023ac:	fffff097          	auipc	ra,0xfffff
    800023b0:	264080e7          	jalr	612(ra) # 80001610 <uvmdealloc>
    800023b4:	85aa                	mv	a1,a0
    800023b6:	b7e1                	j	8000237e <growproc+0x22>

00000000800023b8 <fork>:
{
    800023b8:	7179                	addi	sp,sp,-48
    800023ba:	f406                	sd	ra,40(sp)
    800023bc:	f022                	sd	s0,32(sp)
    800023be:	ec26                	sd	s1,24(sp)
    800023c0:	e84a                	sd	s2,16(sp)
    800023c2:	e44e                	sd	s3,8(sp)
    800023c4:	e052                	sd	s4,0(sp)
    800023c6:	1800                	addi	s0,sp,48
  struct proc *p = myproc();
    800023c8:	00000097          	auipc	ra,0x0
    800023cc:	a3a080e7          	jalr	-1478(ra) # 80001e02 <myproc>
    800023d0:	892a                	mv	s2,a0
  if ((np = allocproc()) == 0)
    800023d2:	00000097          	auipc	ra,0x0
    800023d6:	d0a080e7          	jalr	-758(ra) # 800020dc <allocproc>
    800023da:	16050063          	beqz	a0,8000253a <fork+0x182>
    800023de:	89aa                	mv	s3,a0
  if (uvmcopy(p->pagetable, np->pagetable, p->sz) < 0)
    800023e0:	04893603          	ld	a2,72(s2)
    800023e4:	692c                	ld	a1,80(a0)
    800023e6:	05093503          	ld	a0,80(s2)
    800023ea:	fffff097          	auipc	ra,0xfffff
    800023ee:	3c2080e7          	jalr	962(ra) # 800017ac <uvmcopy>
    800023f2:	04054e63          	bltz	a0,8000244e <fork+0x96>
  np->sz = p->sz;
    800023f6:	04893783          	ld	a5,72(s2)
    800023fa:	04f9b423          	sd	a5,72(s3)
  *(np->trapframe) = *(p->trapframe);
    800023fe:	05893683          	ld	a3,88(s2)
    80002402:	87b6                	mv	a5,a3
    80002404:	0589b703          	ld	a4,88(s3)
    80002408:	12068693          	addi	a3,a3,288
    8000240c:	0007b803          	ld	a6,0(a5)
    80002410:	6788                	ld	a0,8(a5)
    80002412:	6b8c                	ld	a1,16(a5)
    80002414:	6f90                	ld	a2,24(a5)
    80002416:	01073023          	sd	a6,0(a4)
    8000241a:	e708                	sd	a0,8(a4)
    8000241c:	eb0c                	sd	a1,16(a4)
    8000241e:	ef10                	sd	a2,24(a4)
    80002420:	02078793          	addi	a5,a5,32
    80002424:	02070713          	addi	a4,a4,32
    80002428:	fed792e3          	bne	a5,a3,8000240c <fork+0x54>
  np->trapframe->a0 = 0;
    8000242c:	0589b783          	ld	a5,88(s3)
    80002430:	0607b823          	sd	zero,112(a5)
  np->bitmask = p->bitmask;
    80002434:	16892783          	lw	a5,360(s2)
    80002438:	16f9a423          	sw	a5,360(s3)
  np->tickets = p->tickets;
    8000243c:	18093783          	ld	a5,384(s2)
    80002440:	18f9b023          	sd	a5,384(s3)
    80002444:	0d000493          	li	s1,208
  for (i = 0; i < NOFILE; i++)
    80002448:	15000a13          	li	s4,336
    8000244c:	a03d                	j	8000247a <fork+0xc2>
    freeproc(np);
    8000244e:	854e                	mv	a0,s3
    80002450:	00000097          	auipc	ra,0x0
    80002454:	c22080e7          	jalr	-990(ra) # 80002072 <freeproc>
    release(&np->lock);
    80002458:	854e                	mv	a0,s3
    8000245a:	fffff097          	auipc	ra,0xfffff
    8000245e:	a70080e7          	jalr	-1424(ra) # 80000eca <release>
    return -1;
    80002462:	5a7d                	li	s4,-1
    80002464:	a859                	j	800024fa <fork+0x142>
      np->ofile[i] = filedup(p->ofile[i]);
    80002466:	00003097          	auipc	ra,0x3
    8000246a:	170080e7          	jalr	368(ra) # 800055d6 <filedup>
    8000246e:	009987b3          	add	a5,s3,s1
    80002472:	e388                	sd	a0,0(a5)
  for (i = 0; i < NOFILE; i++)
    80002474:	04a1                	addi	s1,s1,8
    80002476:	01448763          	beq	s1,s4,80002484 <fork+0xcc>
    if (p->ofile[i])
    8000247a:	009907b3          	add	a5,s2,s1
    8000247e:	6388                	ld	a0,0(a5)
    80002480:	f17d                	bnez	a0,80002466 <fork+0xae>
    80002482:	bfcd                	j	80002474 <fork+0xbc>
  np->cwd = idup(p->cwd);
    80002484:	15093503          	ld	a0,336(s2)
    80002488:	00002097          	auipc	ra,0x2
    8000248c:	2d4080e7          	jalr	724(ra) # 8000475c <idup>
    80002490:	14a9b823          	sd	a0,336(s3)
  safestrcpy(np->name, p->name, sizeof(p->name));
    80002494:	4641                	li	a2,16
    80002496:	15890593          	addi	a1,s2,344
    8000249a:	15898513          	addi	a0,s3,344
    8000249e:	fffff097          	auipc	ra,0xfffff
    800024a2:	bc6080e7          	jalr	-1082(ra) # 80001064 <safestrcpy>
  pid = np->pid;
    800024a6:	0309aa03          	lw	s4,48(s3)
  release(&np->lock);
    800024aa:	854e                	mv	a0,s3
    800024ac:	fffff097          	auipc	ra,0xfffff
    800024b0:	a1e080e7          	jalr	-1506(ra) # 80000eca <release>
  acquire(&wait_lock);
    800024b4:	00230497          	auipc	s1,0x230
    800024b8:	a1c48493          	addi	s1,s1,-1508 # 80231ed0 <wait_lock>
    800024bc:	8526                	mv	a0,s1
    800024be:	fffff097          	auipc	ra,0xfffff
    800024c2:	958080e7          	jalr	-1704(ra) # 80000e16 <acquire>
  np->parent = p;
    800024c6:	0329bc23          	sd	s2,56(s3)
  release(&wait_lock);
    800024ca:	8526                	mv	a0,s1
    800024cc:	fffff097          	auipc	ra,0xfffff
    800024d0:	9fe080e7          	jalr	-1538(ra) # 80000eca <release>
  acquire(&np->lock);
    800024d4:	854e                	mv	a0,s3
    800024d6:	fffff097          	auipc	ra,0xfffff
    800024da:	940080e7          	jalr	-1728(ra) # 80000e16 <acquire>
  np->state = RUNNABLE;
    800024de:	478d                	li	a5,3
    800024e0:	00f9ac23          	sw	a5,24(s3)
  if (np && !np->queued && p->queued)
    800024e4:	1d89b783          	ld	a5,472(s3)
    800024e8:	e781                	bnez	a5,800024f0 <fork+0x138>
    800024ea:	1d893783          	ld	a5,472(s2)
    800024ee:	ef99                	bnez	a5,8000250c <fork+0x154>
  release(&np->lock);
    800024f0:	854e                	mv	a0,s3
    800024f2:	fffff097          	auipc	ra,0xfffff
    800024f6:	9d8080e7          	jalr	-1576(ra) # 80000eca <release>
}
    800024fa:	8552                	mv	a0,s4
    800024fc:	70a2                	ld	ra,40(sp)
    800024fe:	7402                	ld	s0,32(sp)
    80002500:	64e2                	ld	s1,24(sp)
    80002502:	6942                	ld	s2,16(sp)
    80002504:	69a2                	ld	s3,8(sp)
    80002506:	6a02                	ld	s4,0(sp)
    80002508:	6145                	addi	sp,sp,48
    8000250a:	8082                	ret
    enqueue(&mlfq[0], np);
    8000250c:	85ce                	mv	a1,s3
    8000250e:	00239517          	auipc	a0,0x239
    80002512:	fda50513          	addi	a0,a0,-38 # 8023b4e8 <mlfq>
    80002516:	fffff097          	auipc	ra,0xfffff
    8000251a:	5c2080e7          	jalr	1474(ra) # 80001ad8 <enqueue>
    np->queued = 1;
    8000251e:	4785                	li	a5,1
    80002520:	1cf9bc23          	sd	a5,472(s3)
    np->queue_in_time = ticks;
    80002524:	00007797          	auipc	a5,0x7
    80002528:	70c7e783          	lwu	a5,1804(a5) # 80009c30 <ticks>
    8000252c:	1ef9b823          	sd	a5,496(s3)
    np->mlfq_priority = 0;
    80002530:	1c09b823          	sd	zero,464(s3)
    np->wait_time = 0;
    80002534:	1a09b023          	sd	zero,416(s3)
    80002538:	bf65                	j	800024f0 <fork+0x138>
    return -1;
    8000253a:	5a7d                	li	s4,-1
    8000253c:	bf7d                	j	800024fa <fork+0x142>

000000008000253e <lock_ptable>:
{
    8000253e:	1101                	addi	sp,sp,-32
    80002540:	ec06                	sd	ra,24(sp)
    80002542:	e822                	sd	s0,16(sp)
    80002544:	e426                	sd	s1,8(sp)
    80002546:	e04a                	sd	s2,0(sp)
    80002548:	1000                	addi	s0,sp,32
  for (struct proc *p = proc; p < &proc[NPROC]; p++)
    8000254a:	00230497          	auipc	s1,0x230
    8000254e:	d9e48493          	addi	s1,s1,-610 # 802322e8 <proc>
    80002552:	00239917          	auipc	s2,0x239
    80002556:	f9690913          	addi	s2,s2,-106 # 8023b4e8 <mlfq>
    acquire(&p->lock);
    8000255a:	8526                	mv	a0,s1
    8000255c:	fffff097          	auipc	ra,0xfffff
    80002560:	8ba080e7          	jalr	-1862(ra) # 80000e16 <acquire>
  for (struct proc *p = proc; p < &proc[NPROC]; p++)
    80002564:	24848493          	addi	s1,s1,584
    80002568:	ff2499e3          	bne	s1,s2,8000255a <lock_ptable+0x1c>
}
    8000256c:	60e2                	ld	ra,24(sp)
    8000256e:	6442                	ld	s0,16(sp)
    80002570:	64a2                	ld	s1,8(sp)
    80002572:	6902                	ld	s2,0(sp)
    80002574:	6105                	addi	sp,sp,32
    80002576:	8082                	ret

0000000080002578 <release_ptable>:
{
    80002578:	7179                	addi	sp,sp,-48
    8000257a:	f406                	sd	ra,40(sp)
    8000257c:	f022                	sd	s0,32(sp)
    8000257e:	ec26                	sd	s1,24(sp)
    80002580:	e84a                	sd	s2,16(sp)
    80002582:	e44e                	sd	s3,8(sp)
    80002584:	1800                	addi	s0,sp,48
    80002586:	892a                	mv	s2,a0
  for (struct proc *p = proc; p < &proc[NPROC]; p++)
    80002588:	00230497          	auipc	s1,0x230
    8000258c:	d6048493          	addi	s1,s1,-672 # 802322e8 <proc>
    80002590:	00239997          	auipc	s3,0x239
    80002594:	f5898993          	addi	s3,s3,-168 # 8023b4e8 <mlfq>
    80002598:	a811                	j	800025ac <release_ptable+0x34>
      release(&p->lock);
    8000259a:	8526                	mv	a0,s1
    8000259c:	fffff097          	auipc	ra,0xfffff
    800025a0:	92e080e7          	jalr	-1746(ra) # 80000eca <release>
  for (struct proc *p = proc; p < &proc[NPROC]; p++)
    800025a4:	24848493          	addi	s1,s1,584
    800025a8:	01348563          	beq	s1,s3,800025b2 <release_ptable+0x3a>
    if (p != e)
    800025ac:	fe9917e3          	bne	s2,s1,8000259a <release_ptable+0x22>
    800025b0:	bfd5                	j	800025a4 <release_ptable+0x2c>
}
    800025b2:	70a2                	ld	ra,40(sp)
    800025b4:	7402                	ld	s0,32(sp)
    800025b6:	64e2                	ld	s1,24(sp)
    800025b8:	6942                	ld	s2,16(sp)
    800025ba:	69a2                	ld	s3,8(sp)
    800025bc:	6145                	addi	sp,sp,48
    800025be:	8082                	ret

00000000800025c0 <scheduler>:
{
    800025c0:	d6010113          	addi	sp,sp,-672
    800025c4:	28113c23          	sd	ra,664(sp)
    800025c8:	28813823          	sd	s0,656(sp)
    800025cc:	28913423          	sd	s1,648(sp)
    800025d0:	29213023          	sd	s2,640(sp)
    800025d4:	27313c23          	sd	s3,632(sp)
    800025d8:	27413823          	sd	s4,624(sp)
    800025dc:	27513423          	sd	s5,616(sp)
    800025e0:	27613023          	sd	s6,608(sp)
    800025e4:	25713c23          	sd	s7,600(sp)
    800025e8:	25813823          	sd	s8,592(sp)
    800025ec:	25913423          	sd	s9,584(sp)
    800025f0:	25a13023          	sd	s10,576(sp)
    800025f4:	23b13c23          	sd	s11,568(sp)
    800025f8:	1500                	addi	s0,sp,672
    800025fa:	8792                	mv	a5,tp
  int id = r_tp();
    800025fc:	2781                	sext.w	a5,a5
  c->proc = 0;
    800025fe:	00779693          	slli	a3,a5,0x7
    80002602:	00230717          	auipc	a4,0x230
    80002606:	8b670713          	addi	a4,a4,-1866 # 80231eb8 <pid_lock>
    8000260a:	9736                	add	a4,a4,a3
    8000260c:	02073823          	sd	zero,48(a4)
    swtch(&c->context, &proc_to_run->context);
    80002610:	00230717          	auipc	a4,0x230
    80002614:	8e070713          	addi	a4,a4,-1824 # 80231ef0 <cpus+0x8>
    80002618:	9736                	add	a4,a4,a3
    8000261a:	d6e43423          	sd	a4,-664(s0)
        enqueue(&mlfq[p->mlfq_priority], p);
    8000261e:	00239c97          	auipc	s9,0x239
    80002622:	ecac8c93          	addi	s9,s9,-310 # 8023b4e8 <mlfq>
        p->queue_in_time = ticks;
    80002626:	00007c17          	auipc	s8,0x7
    8000262a:	60ac0c13          	addi	s8,s8,1546 # 80009c30 <ticks>
    c->proc = proc_to_run;
    8000262e:	00230d97          	auipc	s11,0x230
    80002632:	88ad8d93          	addi	s11,s11,-1910 # 80231eb8 <pid_lock>
    80002636:	9db6                	add	s11,s11,a3
    80002638:	aa7d                	j	800027f6 <scheduler+0x236>
        enqueue(&mlfq[p->mlfq_priority], p);
    8000263a:	1d04b783          	ld	a5,464(s1)
    8000263e:	00479513          	slli	a0,a5,0x4
    80002642:	953e                	add	a0,a0,a5
    80002644:	0516                	slli	a0,a0,0x5
    80002646:	85a6                	mv	a1,s1
    80002648:	9566                	add	a0,a0,s9
    8000264a:	fffff097          	auipc	ra,0xfffff
    8000264e:	48e080e7          	jalr	1166(ra) # 80001ad8 <enqueue>
        p->queue_in_time = ticks;
    80002652:	000c6783          	lwu	a5,0(s8)
    80002656:	1ef4b823          	sd	a5,496(s1)
        p->queued = 1;
    8000265a:	1d24bc23          	sd	s2,472(s1)
        p->wait_time = 0;
    8000265e:	1a04b023          	sd	zero,416(s1)
      release(&p->lock);
    80002662:	8526                	mv	a0,s1
    80002664:	fffff097          	auipc	ra,0xfffff
    80002668:	866080e7          	jalr	-1946(ra) # 80000eca <release>
    for (p = proc; p < &proc[NPROC]; p++)
    8000266c:	24848493          	addi	s1,s1,584
    80002670:	01448e63          	beq	s1,s4,8000268c <scheduler+0xcc>
      acquire(&p->lock);
    80002674:	8526                	mv	a0,s1
    80002676:	ffffe097          	auipc	ra,0xffffe
    8000267a:	7a0080e7          	jalr	1952(ra) # 80000e16 <acquire>
      if (p->state == RUNNABLE && !p->queued)
    8000267e:	4c9c                	lw	a5,24(s1)
    80002680:	ff3791e3          	bne	a5,s3,80002662 <scheduler+0xa2>
    80002684:	1d84b783          	ld	a5,472(s1)
    80002688:	ffe9                	bnez	a5,80002662 <scheduler+0xa2>
    8000268a:	bf45                	j	8000263a <scheduler+0x7a>
    for (p = proc; p < &proc[NPROC]; p++)
    8000268c:	00230497          	auipc	s1,0x230
    80002690:	c5c48493          	addi	s1,s1,-932 # 802322e8 <proc>
    80002694:	a811                	j	800026a8 <scheduler+0xe8>
      release(&p->lock);
    80002696:	8526                	mv	a0,s1
    80002698:	fffff097          	auipc	ra,0xfffff
    8000269c:	832080e7          	jalr	-1998(ra) # 80000eca <release>
    for (p = proc; p < &proc[NPROC]; p++)
    800026a0:	24848493          	addi	s1,s1,584
    800026a4:	07448f63          	beq	s1,s4,80002722 <scheduler+0x162>
      acquire(&p->lock);
    800026a8:	8526                	mv	a0,s1
    800026aa:	ffffe097          	auipc	ra,0xffffe
    800026ae:	76c080e7          	jalr	1900(ra) # 80000e16 <acquire>
      if (p && p->state == RUNNABLE && p->mlfq_priority && ticks - p->queue_in_time >= p->age_queue[p->mlfq_priority])
    800026b2:	d0f5                	beqz	s1,80002696 <scheduler+0xd6>
    800026b4:	4c9c                	lw	a5,24(s1)
    800026b6:	ff3790e3          	bne	a5,s3,80002696 <scheduler+0xd6>
    800026ba:	1d04b703          	ld	a4,464(s1)
    800026be:	df61                	beqz	a4,80002696 <scheduler+0xd6>
    800026c0:	000c6683          	lwu	a3,0(s8)
    800026c4:	1f04b783          	ld	a5,496(s1)
    800026c8:	8e9d                	sub	a3,a3,a5
    800026ca:	04470793          	addi	a5,a4,68
    800026ce:	078e                	slli	a5,a5,0x3
    800026d0:	97a6                	add	a5,a5,s1
    800026d2:	639c                	ld	a5,0(a5)
    800026d4:	fcf6e1e3          	bltu	a3,a5,80002696 <scheduler+0xd6>
        if (p->queued)
    800026d8:	1d84b783          	ld	a5,472(s1)
    800026dc:	dfcd                	beqz	a5,80002696 <scheduler+0xd6>
          queue_swap(&mlfq[p->mlfq_priority], p->pid);
    800026de:	00471513          	slli	a0,a4,0x4
    800026e2:	972a                	add	a4,a4,a0
    800026e4:	00571513          	slli	a0,a4,0x5
    800026e8:	588c                	lw	a1,48(s1)
    800026ea:	9566                	add	a0,a0,s9
    800026ec:	00000097          	auipc	ra,0x0
    800026f0:	834080e7          	jalr	-1996(ra) # 80001f20 <queue_swap>
          p->mlfq_priority--;
    800026f4:	1d04b503          	ld	a0,464(s1)
    800026f8:	fff50793          	addi	a5,a0,-1
    800026fc:	1cf4b823          	sd	a5,464(s1)
          enqueue(&mlfq[p->mlfq_priority], p);
    80002700:	00479513          	slli	a0,a5,0x4
    80002704:	953e                	add	a0,a0,a5
    80002706:	0516                	slli	a0,a0,0x5
    80002708:	85a6                	mv	a1,s1
    8000270a:	9566                	add	a0,a0,s9
    8000270c:	fffff097          	auipc	ra,0xfffff
    80002710:	3cc080e7          	jalr	972(ra) # 80001ad8 <enqueue>
          p->queue_in_time = ticks;
    80002714:	000c6783          	lwu	a5,0(s8)
    80002718:	1ef4b823          	sd	a5,496(s1)
          p->wait_time = 0;
    8000271c:	1a04b023          	sd	zero,416(s1)
    80002720:	bf9d                	j	80002696 <scheduler+0xd6>
    80002722:	00239b97          	auipc	s7,0x239
    80002726:	dc6b8b93          	addi	s7,s7,-570 # 8023b4e8 <mlfq>
    8000272a:	a88d                	j	8000279c <scheduler+0x1dc>
      while (mlfq[level].numitems)
    8000272c:	21892783          	lw	a5,536(s2)
    80002730:	c3b5                	beqz	a5,80002794 <scheduler+0x1d4>
        p = front(mlfq[level]);
    80002732:	87ca                	mv	a5,s2
    80002734:	d7040713          	addi	a4,s0,-656
    80002738:	6388                	ld	a0,0(a5)
    8000273a:	678c                	ld	a1,8(a5)
    8000273c:	6b90                	ld	a2,16(a5)
    8000273e:	6f94                	ld	a3,24(a5)
    80002740:	e308                	sd	a0,0(a4)
    80002742:	e70c                	sd	a1,8(a4)
    80002744:	eb10                	sd	a2,16(a4)
    80002746:	ef14                	sd	a3,24(a4)
    80002748:	02078793          	addi	a5,a5,32
    8000274c:	02070713          	addi	a4,a4,32
    80002750:	ff5794e3          	bne	a5,s5,80002738 <scheduler+0x178>
  return qu.arr[qu.front];
    80002754:	00492783          	lw	a5,4(s2)
    80002758:	0789                	addi	a5,a5,2
    8000275a:	078e                	slli	a5,a5,0x3
    8000275c:	f9040713          	addi	a4,s0,-112
    80002760:	97ba                	add	a5,a5,a4
    80002762:	de07b483          	ld	s1,-544(a5)
        dequeue(&mlfq[level]);
    80002766:	854a                	mv	a0,s2
    80002768:	fffff097          	auipc	ra,0xfffff
    8000276c:	3c8080e7          	jalr	968(ra) # 80001b30 <dequeue>
        if (p)
    80002770:	dcd5                	beqz	s1,8000272c <scheduler+0x16c>
          acquire(&p->lock);
    80002772:	8b26                	mv	s6,s1
    80002774:	8526                	mv	a0,s1
    80002776:	ffffe097          	auipc	ra,0xffffe
    8000277a:	6a0080e7          	jalr	1696(ra) # 80000e16 <acquire>
          p->queued = 0;
    8000277e:	1c04bc23          	sd	zero,472(s1)
          if (p->state == RUNNABLE)
    80002782:	4c9c                	lw	a5,24(s1)
    80002784:	03378363          	beq	a5,s3,800027aa <scheduler+0x1ea>
          release(&p->lock);
    80002788:	8526                	mv	a0,s1
    8000278a:	ffffe097          	auipc	ra,0xffffe
    8000278e:	740080e7          	jalr	1856(ra) # 80000eca <release>
    80002792:	bf69                	j	8000272c <scheduler+0x16c>
    for (int level = 0; level < 5; level++)
    80002794:	220b8b93          	addi	s7,s7,544
    80002798:	077d0863          	beq	s10,s7,80002808 <scheduler+0x248>
      while (mlfq[level].numitems)
    8000279c:	895e                	mv	s2,s7
    8000279e:	218ba783          	lw	a5,536(s7)
    800027a2:	220b8a93          	addi	s5,s7,544
    800027a6:	f7d1                	bnez	a5,80002732 <scheduler+0x172>
    800027a8:	b7f5                	j	80002794 <scheduler+0x1d4>
    proc_to_run->state = RUNNING;
    800027aa:	4791                	li	a5,4
    800027ac:	cc9c                	sw	a5,24(s1)
    if (p->quantums_left <= 0)
    800027ae:	1e04b783          	ld	a5,480(s1)
    800027b2:	eb81                	bnez	a5,800027c2 <scheduler+0x202>
      proc_to_run->quantums_left = 1 << proc_to_run->mlfq_priority;
    800027b4:	1d04b703          	ld	a4,464(s1)
    800027b8:	4785                	li	a5,1
    800027ba:	00e797bb          	sllw	a5,a5,a4
    800027be:	1ef4b023          	sd	a5,480(s1)
    c->proc = proc_to_run;
    800027c2:	029db823          	sd	s1,48(s11)
    proc_to_run->runs_till_now++;
    800027c6:	1e84b783          	ld	a5,488(s1)
    800027ca:	0785                	addi	a5,a5,1
    800027cc:	1ef4b423          	sd	a5,488(s1)
    swtch(&c->context, &proc_to_run->context);
    800027d0:	06048593          	addi	a1,s1,96
    800027d4:	d6843503          	ld	a0,-664(s0)
    800027d8:	00001097          	auipc	ra,0x1
    800027dc:	ad0080e7          	jalr	-1328(ra) # 800032a8 <swtch>
    c->proc = 0;
    800027e0:	020db823          	sd	zero,48(s11)
    proc_to_run->queue_in_time = ticks;
    800027e4:	000c6783          	lwu	a5,0(s8)
    800027e8:	1ef4b823          	sd	a5,496(s1)
    release(&proc_to_run->lock);
    800027ec:	855a                	mv	a0,s6
    800027ee:	ffffe097          	auipc	ra,0xffffe
    800027f2:	6dc080e7          	jalr	1756(ra) # 80000eca <release>
      if (p->state == RUNNABLE && !p->queued)
    800027f6:	498d                	li	s3,3
    for (p = proc; p < &proc[NPROC]; p++)
    800027f8:	00239a17          	auipc	s4,0x239
    800027fc:	cf0a0a13          	addi	s4,s4,-784 # 8023b4e8 <mlfq>
    80002800:	00239d17          	auipc	s10,0x239
    80002804:	788d0d13          	addi	s10,s10,1928 # 8023bf88 <tickslock>
  asm volatile("csrr %0, sstatus" : "=r" (x) );
    80002808:	100027f3          	csrr	a5,sstatus
  w_sstatus(r_sstatus() | SSTATUS_SIE);
    8000280c:	0027e793          	ori	a5,a5,2
  asm volatile("csrw sstatus, %0" : : "r" (x));
    80002810:	10079073          	csrw	sstatus,a5
    80002814:	00230497          	auipc	s1,0x230
    80002818:	ad448493          	addi	s1,s1,-1324 # 802322e8 <proc>
        p->queued = 1;
    8000281c:	4905                	li	s2,1
    8000281e:	bd99                	j	80002674 <scheduler+0xb4>

0000000080002820 <update_time>:
{
    80002820:	715d                	addi	sp,sp,-80
    80002822:	e486                	sd	ra,72(sp)
    80002824:	e0a2                	sd	s0,64(sp)
    80002826:	fc26                	sd	s1,56(sp)
    80002828:	f84a                	sd	s2,48(sp)
    8000282a:	f44e                	sd	s3,40(sp)
    8000282c:	f052                	sd	s4,32(sp)
    8000282e:	ec56                	sd	s5,24(sp)
    80002830:	e85a                	sd	s6,16(sp)
    80002832:	e45e                	sd	s7,8(sp)
    80002834:	e062                	sd	s8,0(sp)
    80002836:	0880                	addi	s0,sp,80
  for (p = proc; p < &proc[NPROC]; p++)
    80002838:	00230497          	auipc	s1,0x230
    8000283c:	ab048493          	addi	s1,s1,-1360 # 802322e8 <proc>
    if (p->state == RUNNING)
    80002840:	4991                	li	s3,4
    else if (p->state == SLEEPING)
    80002842:	4a09                	li	s4,2
    else if (p->state == RUNNABLE)
    80002844:	4a8d                	li	s5,3
        queue_swap(&mlfq[p->mlfq_priority], p->pid);
    80002846:	00239b17          	auipc	s6,0x239
    8000284a:	ca2b0b13          	addi	s6,s6,-862 # 8023b4e8 <mlfq>
        p->queued = 1;
    8000284e:	4c05                	li	s8,1
        p->queue_in_time = ticks;
    80002850:	00007b97          	auipc	s7,0x7
    80002854:	3e0b8b93          	addi	s7,s7,992 # 80009c30 <ticks>
  for (p = proc; p < &proc[NPROC]; p++)
    80002858:	00239917          	auipc	s2,0x239
    8000285c:	c9090913          	addi	s2,s2,-880 # 8023b4e8 <mlfq>
    80002860:	a091                	j	800028a4 <update_time+0x84>
      p->run_time++;
    80002862:	1a84b783          	ld	a5,424(s1)
    80002866:	0785                	addi	a5,a5,1
    80002868:	1af4b423          	sd	a5,424(s1)
      p->total_run_time++;
    8000286c:	1c84b783          	ld	a5,456(s1)
    80002870:	0785                	addi	a5,a5,1
    80002872:	1cf4b423          	sd	a5,456(s1)
      p->quantums_left--;
    80002876:	1e04b783          	ld	a5,480(s1)
    8000287a:	17fd                	addi	a5,a5,-1
    8000287c:	1ef4b023          	sd	a5,480(s1)
      p->queue_run_time[p->mlfq_priority]++;
    80002880:	1d04b783          	ld	a5,464(s1)
    80002884:	078e                	slli	a5,a5,0x3
    80002886:	97a6                	add	a5,a5,s1
    80002888:	1f87b703          	ld	a4,504(a5)
    8000288c:	0705                	addi	a4,a4,1
    8000288e:	1ee7bc23          	sd	a4,504(a5)
    release(&p->lock);
    80002892:	8526                	mv	a0,s1
    80002894:	ffffe097          	auipc	ra,0xffffe
    80002898:	636080e7          	jalr	1590(ra) # 80000eca <release>
  for (p = proc; p < &proc[NPROC]; p++)
    8000289c:	24848493          	addi	s1,s1,584
    800028a0:	0b248563          	beq	s1,s2,8000294a <update_time+0x12a>
    acquire(&p->lock);
    800028a4:	8526                	mv	a0,s1
    800028a6:	ffffe097          	auipc	ra,0xffffe
    800028aa:	570080e7          	jalr	1392(ra) # 80000e16 <acquire>
    if (p->queued)
    800028ae:	1d84b703          	ld	a4,472(s1)
    800028b2:	cb11                	beqz	a4,800028c6 <update_time+0xa6>
      p->queue_run_time[p->mlfq_priority]++;
    800028b4:	1d04b783          	ld	a5,464(s1)
    800028b8:	078e                	slli	a5,a5,0x3
    800028ba:	97a6                	add	a5,a5,s1
    800028bc:	1f87b683          	ld	a3,504(a5)
    800028c0:	0685                	addi	a3,a3,1
    800028c2:	1ed7bc23          	sd	a3,504(a5)
    if (p->state == RUNNING)
    800028c6:	4c9c                	lw	a5,24(s1)
    800028c8:	f9378de3          	beq	a5,s3,80002862 <update_time+0x42>
    else if (p->state == SLEEPING)
    800028cc:	07478963          	beq	a5,s4,8000293e <update_time+0x11e>
    else if (p->state == RUNNABLE)
    800028d0:	fd5791e3          	bne	a5,s5,80002892 <update_time+0x72>
      p->wait_time++;
    800028d4:	1a04b683          	ld	a3,416(s1)
    800028d8:	0685                	addi	a3,a3,1
    800028da:	1ad4b023          	sd	a3,416(s1)
      if (p && p->wait_time > p->age_queue[p->mlfq_priority] && p->queued && p->mlfq_priority)
    800028de:	1d04b603          	ld	a2,464(s1)
    800028e2:	04460793          	addi	a5,a2,68 # 1044 <_entry-0x7fffefbc>
    800028e6:	078e                	slli	a5,a5,0x3
    800028e8:	97a6                	add	a5,a5,s1
    800028ea:	639c                	ld	a5,0(a5)
    800028ec:	fad7f3e3          	bgeu	a5,a3,80002892 <update_time+0x72>
    800028f0:	d34d                	beqz	a4,80002892 <update_time+0x72>
    800028f2:	d245                	beqz	a2,80002892 <update_time+0x72>
        queue_swap(&mlfq[p->mlfq_priority], p->pid);
    800028f4:	00461513          	slli	a0,a2,0x4
    800028f8:	962a                	add	a2,a2,a0
    800028fa:	00561513          	slli	a0,a2,0x5
    800028fe:	588c                	lw	a1,48(s1)
    80002900:	955a                	add	a0,a0,s6
    80002902:	fffff097          	auipc	ra,0xfffff
    80002906:	61e080e7          	jalr	1566(ra) # 80001f20 <queue_swap>
        p->queued = 0;
    8000290a:	1c04bc23          	sd	zero,472(s1)
        p->mlfq_priority--;
    8000290e:	1d04b783          	ld	a5,464(s1)
    80002912:	17fd                	addi	a5,a5,-1
    80002914:	1cf4b823          	sd	a5,464(s1)
        enqueue(&mlfq[p->mlfq_priority], p);
    80002918:	00479513          	slli	a0,a5,0x4
    8000291c:	953e                	add	a0,a0,a5
    8000291e:	0516                	slli	a0,a0,0x5
    80002920:	85a6                	mv	a1,s1
    80002922:	955a                	add	a0,a0,s6
    80002924:	fffff097          	auipc	ra,0xfffff
    80002928:	1b4080e7          	jalr	436(ra) # 80001ad8 <enqueue>
        p->queued = 1;
    8000292c:	1d84bc23          	sd	s8,472(s1)
        p->wait_time = 0;
    80002930:	1a04b023          	sd	zero,416(s1)
        p->queue_in_time = ticks;
    80002934:	000be783          	lwu	a5,0(s7)
    80002938:	1ef4b823          	sd	a5,496(s1)
    8000293c:	bf99                	j	80002892 <update_time+0x72>
      p->sleep_time++;
    8000293e:	1b84b783          	ld	a5,440(s1)
    80002942:	0785                	addi	a5,a5,1
    80002944:	1af4bc23          	sd	a5,440(s1)
    80002948:	b7a9                	j	80002892 <update_time+0x72>
}
    8000294a:	60a6                	ld	ra,72(sp)
    8000294c:	6406                	ld	s0,64(sp)
    8000294e:	74e2                	ld	s1,56(sp)
    80002950:	7942                	ld	s2,48(sp)
    80002952:	79a2                	ld	s3,40(sp)
    80002954:	7a02                	ld	s4,32(sp)
    80002956:	6ae2                	ld	s5,24(sp)
    80002958:	6b42                	ld	s6,16(sp)
    8000295a:	6ba2                	ld	s7,8(sp)
    8000295c:	6c02                	ld	s8,0(sp)
    8000295e:	6161                	addi	sp,sp,80
    80002960:	8082                	ret

0000000080002962 <sched>:
{
    80002962:	7179                	addi	sp,sp,-48
    80002964:	f406                	sd	ra,40(sp)
    80002966:	f022                	sd	s0,32(sp)
    80002968:	ec26                	sd	s1,24(sp)
    8000296a:	e84a                	sd	s2,16(sp)
    8000296c:	e44e                	sd	s3,8(sp)
    8000296e:	1800                	addi	s0,sp,48
  struct proc *p = myproc();
    80002970:	fffff097          	auipc	ra,0xfffff
    80002974:	492080e7          	jalr	1170(ra) # 80001e02 <myproc>
    80002978:	84aa                	mv	s1,a0
  if (!holding(&p->lock))
    8000297a:	ffffe097          	auipc	ra,0xffffe
    8000297e:	422080e7          	jalr	1058(ra) # 80000d9c <holding>
    80002982:	c93d                	beqz	a0,800029f8 <sched+0x96>
  asm volatile("mv %0, tp" : "=r" (x) );
    80002984:	8792                	mv	a5,tp
  if (mycpu()->noff != 1)
    80002986:	2781                	sext.w	a5,a5
    80002988:	079e                	slli	a5,a5,0x7
    8000298a:	0022f717          	auipc	a4,0x22f
    8000298e:	52e70713          	addi	a4,a4,1326 # 80231eb8 <pid_lock>
    80002992:	97ba                	add	a5,a5,a4
    80002994:	0a87a703          	lw	a4,168(a5)
    80002998:	4785                	li	a5,1
    8000299a:	06f71763          	bne	a4,a5,80002a08 <sched+0xa6>
  if (p->state == RUNNING)
    8000299e:	4c98                	lw	a4,24(s1)
    800029a0:	4791                	li	a5,4
    800029a2:	06f70b63          	beq	a4,a5,80002a18 <sched+0xb6>
  asm volatile("csrr %0, sstatus" : "=r" (x) );
    800029a6:	100027f3          	csrr	a5,sstatus
  return (x & SSTATUS_SIE) != 0;
    800029aa:	8b89                	andi	a5,a5,2
  if (intr_get())
    800029ac:	efb5                	bnez	a5,80002a28 <sched+0xc6>
  asm volatile("mv %0, tp" : "=r" (x) );
    800029ae:	8792                	mv	a5,tp
  intena = mycpu()->intena;
    800029b0:	0022f917          	auipc	s2,0x22f
    800029b4:	50890913          	addi	s2,s2,1288 # 80231eb8 <pid_lock>
    800029b8:	2781                	sext.w	a5,a5
    800029ba:	079e                	slli	a5,a5,0x7
    800029bc:	97ca                	add	a5,a5,s2
    800029be:	0ac7a983          	lw	s3,172(a5)
    800029c2:	8792                	mv	a5,tp
  swtch(&p->context, &mycpu()->context);
    800029c4:	2781                	sext.w	a5,a5
    800029c6:	079e                	slli	a5,a5,0x7
    800029c8:	0022f597          	auipc	a1,0x22f
    800029cc:	52858593          	addi	a1,a1,1320 # 80231ef0 <cpus+0x8>
    800029d0:	95be                	add	a1,a1,a5
    800029d2:	06048513          	addi	a0,s1,96
    800029d6:	00001097          	auipc	ra,0x1
    800029da:	8d2080e7          	jalr	-1838(ra) # 800032a8 <swtch>
    800029de:	8792                	mv	a5,tp
  mycpu()->intena = intena;
    800029e0:	2781                	sext.w	a5,a5
    800029e2:	079e                	slli	a5,a5,0x7
    800029e4:	97ca                	add	a5,a5,s2
    800029e6:	0b37a623          	sw	s3,172(a5)
}
    800029ea:	70a2                	ld	ra,40(sp)
    800029ec:	7402                	ld	s0,32(sp)
    800029ee:	64e2                	ld	s1,24(sp)
    800029f0:	6942                	ld	s2,16(sp)
    800029f2:	69a2                	ld	s3,8(sp)
    800029f4:	6145                	addi	sp,sp,48
    800029f6:	8082                	ret
    panic("sched p->lock");
    800029f8:	00007517          	auipc	a0,0x7
    800029fc:	85850513          	addi	a0,a0,-1960 # 80009250 <digits+0x210>
    80002a00:	ffffe097          	auipc	ra,0xffffe
    80002a04:	b44080e7          	jalr	-1212(ra) # 80000544 <panic>
    panic("sched locks");
    80002a08:	00007517          	auipc	a0,0x7
    80002a0c:	85850513          	addi	a0,a0,-1960 # 80009260 <digits+0x220>
    80002a10:	ffffe097          	auipc	ra,0xffffe
    80002a14:	b34080e7          	jalr	-1228(ra) # 80000544 <panic>
    panic("sched running");
    80002a18:	00007517          	auipc	a0,0x7
    80002a1c:	85850513          	addi	a0,a0,-1960 # 80009270 <digits+0x230>
    80002a20:	ffffe097          	auipc	ra,0xffffe
    80002a24:	b24080e7          	jalr	-1244(ra) # 80000544 <panic>
    panic("sched interruptible");
    80002a28:	00007517          	auipc	a0,0x7
    80002a2c:	85850513          	addi	a0,a0,-1960 # 80009280 <digits+0x240>
    80002a30:	ffffe097          	auipc	ra,0xffffe
    80002a34:	b14080e7          	jalr	-1260(ra) # 80000544 <panic>

0000000080002a38 <yield>:
{
    80002a38:	1101                	addi	sp,sp,-32
    80002a3a:	ec06                	sd	ra,24(sp)
    80002a3c:	e822                	sd	s0,16(sp)
    80002a3e:	e426                	sd	s1,8(sp)
    80002a40:	1000                	addi	s0,sp,32
  struct proc *p = myproc();
    80002a42:	fffff097          	auipc	ra,0xfffff
    80002a46:	3c0080e7          	jalr	960(ra) # 80001e02 <myproc>
    80002a4a:	84aa                	mv	s1,a0
  acquire(&p->lock);
    80002a4c:	ffffe097          	auipc	ra,0xffffe
    80002a50:	3ca080e7          	jalr	970(ra) # 80000e16 <acquire>
  p->state = RUNNABLE;
    80002a54:	478d                	li	a5,3
    80002a56:	cc9c                	sw	a5,24(s1)
  if (!p->queued)
    80002a58:	1d84b783          	ld	a5,472(s1)
    80002a5c:	cf99                	beqz	a5,80002a7a <yield+0x42>
  sched();
    80002a5e:	00000097          	auipc	ra,0x0
    80002a62:	f04080e7          	jalr	-252(ra) # 80002962 <sched>
  release(&p->lock);
    80002a66:	8526                	mv	a0,s1
    80002a68:	ffffe097          	auipc	ra,0xffffe
    80002a6c:	462080e7          	jalr	1122(ra) # 80000eca <release>
}
    80002a70:	60e2                	ld	ra,24(sp)
    80002a72:	6442                	ld	s0,16(sp)
    80002a74:	64a2                	ld	s1,8(sp)
    80002a76:	6105                	addi	sp,sp,32
    80002a78:	8082                	ret
    enqueue(&mlfq[p->mlfq_priority], p);
    80002a7a:	1d04b503          	ld	a0,464(s1)
    80002a7e:	00451793          	slli	a5,a0,0x4
    80002a82:	97aa                	add	a5,a5,a0
    80002a84:	0796                	slli	a5,a5,0x5
    80002a86:	85a6                	mv	a1,s1
    80002a88:	00239517          	auipc	a0,0x239
    80002a8c:	a6050513          	addi	a0,a0,-1440 # 8023b4e8 <mlfq>
    80002a90:	953e                	add	a0,a0,a5
    80002a92:	fffff097          	auipc	ra,0xfffff
    80002a96:	046080e7          	jalr	70(ra) # 80001ad8 <enqueue>
    p->wait_time = 0;
    80002a9a:	1a04b023          	sd	zero,416(s1)
    p->queued = 1;
    80002a9e:	4785                	li	a5,1
    80002aa0:	1cf4bc23          	sd	a5,472(s1)
    p->queue_in_time = ticks;
    80002aa4:	00007797          	auipc	a5,0x7
    80002aa8:	18c7e783          	lwu	a5,396(a5) # 80009c30 <ticks>
    80002aac:	1ef4b823          	sd	a5,496(s1)
    80002ab0:	b77d                	j	80002a5e <yield+0x26>

0000000080002ab2 <set_priority>:
{
    80002ab2:	7179                	addi	sp,sp,-48
    80002ab4:	f406                	sd	ra,40(sp)
    80002ab6:	f022                	sd	s0,32(sp)
    80002ab8:	ec26                	sd	s1,24(sp)
    80002aba:	e84a                	sd	s2,16(sp)
    80002abc:	e44e                	sd	s3,8(sp)
    80002abe:	e052                	sd	s4,0(sp)
    80002ac0:	1800                	addi	s0,sp,48
    80002ac2:	8a2a                	mv	s4,a0
    80002ac4:	892e                	mv	s2,a1
  for (p = proc; p < &proc[NPROC]; p++)
    80002ac6:	00230497          	auipc	s1,0x230
    80002aca:	82248493          	addi	s1,s1,-2014 # 802322e8 <proc>
    80002ace:	00239997          	auipc	s3,0x239
    80002ad2:	a1a98993          	addi	s3,s3,-1510 # 8023b4e8 <mlfq>
    acquire(&p->lock);
    80002ad6:	8526                	mv	a0,s1
    80002ad8:	ffffe097          	auipc	ra,0xffffe
    80002adc:	33e080e7          	jalr	830(ra) # 80000e16 <acquire>
    if (p->pid == proc_pid)
    80002ae0:	589c                	lw	a5,48(s1)
    80002ae2:	03278663          	beq	a5,s2,80002b0e <set_priority+0x5c>
    release(&p->lock);
    80002ae6:	8526                	mv	a0,s1
    80002ae8:	ffffe097          	auipc	ra,0xffffe
    80002aec:	3e2080e7          	jalr	994(ra) # 80000eca <release>
  for (p = proc; p < &proc[NPROC]; p++)
    80002af0:	24848493          	addi	s1,s1,584
    80002af4:	ff3491e3          	bne	s1,s3,80002ad6 <set_priority+0x24>
    printf("no process with pid : %d exists\n", proc_pid);
    80002af8:	85ca                	mv	a1,s2
    80002afa:	00006517          	auipc	a0,0x6
    80002afe:	79e50513          	addi	a0,a0,1950 # 80009298 <digits+0x258>
    80002b02:	ffffe097          	auipc	ra,0xffffe
    80002b06:	a8c080e7          	jalr	-1396(ra) # 8000058e <printf>
  int old_priority = 0, found = 0;
    80002b0a:	4901                	li	s2,0
    80002b0c:	a831                	j	80002b28 <set_priority+0x76>
      old_priority = p->stat_priority;
    80002b0e:	1904a903          	lw	s2,400(s1)
      p->run_time = 0;
    80002b12:	1a04b423          	sd	zero,424(s1)
      p->stat_priority = new_priority;
    80002b16:	1944a823          	sw	s4,400(s1)
      release(&p->lock);
    80002b1a:	8526                	mv	a0,s1
    80002b1c:	ffffe097          	auipc	ra,0xffffe
    80002b20:	3ae080e7          	jalr	942(ra) # 80000eca <release>
      if (old_priority >= new_priority)
    80002b24:	01494b63          	blt	s2,s4,80002b3a <set_priority+0x88>
}
    80002b28:	854a                	mv	a0,s2
    80002b2a:	70a2                	ld	ra,40(sp)
    80002b2c:	7402                	ld	s0,32(sp)
    80002b2e:	64e2                	ld	s1,24(sp)
    80002b30:	6942                	ld	s2,16(sp)
    80002b32:	69a2                	ld	s3,8(sp)
    80002b34:	6a02                	ld	s4,0(sp)
    80002b36:	6145                	addi	sp,sp,48
    80002b38:	8082                	ret
      yield();
    80002b3a:	00000097          	auipc	ra,0x0
    80002b3e:	efe080e7          	jalr	-258(ra) # 80002a38 <yield>
  if (!found)
    80002b42:	b7dd                	j	80002b28 <set_priority+0x76>

0000000080002b44 <sleep>:

// Atomically release lock and sleep on chan.
// Reacquires lock when awakened.
void sleep(void *chan, struct spinlock *lk)
{
    80002b44:	7179                	addi	sp,sp,-48
    80002b46:	f406                	sd	ra,40(sp)
    80002b48:	f022                	sd	s0,32(sp)
    80002b4a:	ec26                	sd	s1,24(sp)
    80002b4c:	e84a                	sd	s2,16(sp)
    80002b4e:	e44e                	sd	s3,8(sp)
    80002b50:	1800                	addi	s0,sp,48
    80002b52:	89aa                	mv	s3,a0
    80002b54:	892e                	mv	s2,a1
  struct proc *p = myproc();
    80002b56:	fffff097          	auipc	ra,0xfffff
    80002b5a:	2ac080e7          	jalr	684(ra) # 80001e02 <myproc>
    80002b5e:	84aa                	mv	s1,a0
  // Once we hold p->lock, we can be
  // guaranteed that we won't miss any wakeup
  // (wakeup locks p->lock),
  // so it's okay to release lk.

  acquire(&p->lock); // DOC: sleeplock1
    80002b60:	ffffe097          	auipc	ra,0xffffe
    80002b64:	2b6080e7          	jalr	694(ra) # 80000e16 <acquire>
  release(lk);
    80002b68:	854a                	mv	a0,s2
    80002b6a:	ffffe097          	auipc	ra,0xffffe
    80002b6e:	360080e7          	jalr	864(ra) # 80000eca <release>

  // Go to sleep.
  p->chan = chan;
    80002b72:	0334b023          	sd	s3,32(s1)
  p->state = SLEEPING;
    80002b76:	4789                	li	a5,2
    80002b78:	cc9c                	sw	a5,24(s1)

  sched();
    80002b7a:	00000097          	auipc	ra,0x0
    80002b7e:	de8080e7          	jalr	-536(ra) # 80002962 <sched>

  // Tidy up.
  p->chan = 0;
    80002b82:	0204b023          	sd	zero,32(s1)

  // Reacquire original lock.
  release(&p->lock);
    80002b86:	8526                	mv	a0,s1
    80002b88:	ffffe097          	auipc	ra,0xffffe
    80002b8c:	342080e7          	jalr	834(ra) # 80000eca <release>
  acquire(lk);
    80002b90:	854a                	mv	a0,s2
    80002b92:	ffffe097          	auipc	ra,0xffffe
    80002b96:	284080e7          	jalr	644(ra) # 80000e16 <acquire>
}
    80002b9a:	70a2                	ld	ra,40(sp)
    80002b9c:	7402                	ld	s0,32(sp)
    80002b9e:	64e2                	ld	s1,24(sp)
    80002ba0:	6942                	ld	s2,16(sp)
    80002ba2:	69a2                	ld	s3,8(sp)
    80002ba4:	6145                	addi	sp,sp,48
    80002ba6:	8082                	ret

0000000080002ba8 <wait>:
{
    80002ba8:	715d                	addi	sp,sp,-80
    80002baa:	e486                	sd	ra,72(sp)
    80002bac:	e0a2                	sd	s0,64(sp)
    80002bae:	fc26                	sd	s1,56(sp)
    80002bb0:	f84a                	sd	s2,48(sp)
    80002bb2:	f44e                	sd	s3,40(sp)
    80002bb4:	f052                	sd	s4,32(sp)
    80002bb6:	ec56                	sd	s5,24(sp)
    80002bb8:	e85a                	sd	s6,16(sp)
    80002bba:	e45e                	sd	s7,8(sp)
    80002bbc:	e062                	sd	s8,0(sp)
    80002bbe:	0880                	addi	s0,sp,80
    80002bc0:	8b2a                	mv	s6,a0
  struct proc *p = myproc();
    80002bc2:	fffff097          	auipc	ra,0xfffff
    80002bc6:	240080e7          	jalr	576(ra) # 80001e02 <myproc>
    80002bca:	892a                	mv	s2,a0
  acquire(&wait_lock);
    80002bcc:	0022f517          	auipc	a0,0x22f
    80002bd0:	30450513          	addi	a0,a0,772 # 80231ed0 <wait_lock>
    80002bd4:	ffffe097          	auipc	ra,0xffffe
    80002bd8:	242080e7          	jalr	578(ra) # 80000e16 <acquire>
    havekids = 0;
    80002bdc:	4b81                	li	s7,0
        if (pp->state == ZOMBIE)
    80002bde:	4a15                	li	s4,5
    for (pp = proc; pp < &proc[NPROC]; pp++)
    80002be0:	00239997          	auipc	s3,0x239
    80002be4:	90898993          	addi	s3,s3,-1784 # 8023b4e8 <mlfq>
        havekids = 1;
    80002be8:	4a85                	li	s5,1
    sleep(p, &wait_lock); // DOC: wait-sleep
    80002bea:	0022fc17          	auipc	s8,0x22f
    80002bee:	2e6c0c13          	addi	s8,s8,742 # 80231ed0 <wait_lock>
    havekids = 0;
    80002bf2:	875e                	mv	a4,s7
    for (pp = proc; pp < &proc[NPROC]; pp++)
    80002bf4:	0022f497          	auipc	s1,0x22f
    80002bf8:	6f448493          	addi	s1,s1,1780 # 802322e8 <proc>
    80002bfc:	a0bd                	j	80002c6a <wait+0xc2>
          pid = pp->pid;
    80002bfe:	0304a983          	lw	s3,48(s1)
          if (addr != 0 && copyout(p->pagetable, addr, (char *)&pp->xstate,
    80002c02:	000b0e63          	beqz	s6,80002c1e <wait+0x76>
    80002c06:	4691                	li	a3,4
    80002c08:	02c48613          	addi	a2,s1,44
    80002c0c:	85da                	mv	a1,s6
    80002c0e:	05093503          	ld	a0,80(s2)
    80002c12:	fffff097          	auipc	ra,0xfffff
    80002c16:	caa080e7          	jalr	-854(ra) # 800018bc <copyout>
    80002c1a:	02054563          	bltz	a0,80002c44 <wait+0x9c>
          freeproc(pp);
    80002c1e:	8526                	mv	a0,s1
    80002c20:	fffff097          	auipc	ra,0xfffff
    80002c24:	452080e7          	jalr	1106(ra) # 80002072 <freeproc>
          release(&pp->lock);
    80002c28:	8526                	mv	a0,s1
    80002c2a:	ffffe097          	auipc	ra,0xffffe
    80002c2e:	2a0080e7          	jalr	672(ra) # 80000eca <release>
          release(&wait_lock);
    80002c32:	0022f517          	auipc	a0,0x22f
    80002c36:	29e50513          	addi	a0,a0,670 # 80231ed0 <wait_lock>
    80002c3a:	ffffe097          	auipc	ra,0xffffe
    80002c3e:	290080e7          	jalr	656(ra) # 80000eca <release>
          return pid;
    80002c42:	a09d                	j	80002ca8 <wait+0x100>
            release(&pp->lock);
    80002c44:	8526                	mv	a0,s1
    80002c46:	ffffe097          	auipc	ra,0xffffe
    80002c4a:	284080e7          	jalr	644(ra) # 80000eca <release>
            release(&wait_lock);
    80002c4e:	0022f517          	auipc	a0,0x22f
    80002c52:	28250513          	addi	a0,a0,642 # 80231ed0 <wait_lock>
    80002c56:	ffffe097          	auipc	ra,0xffffe
    80002c5a:	274080e7          	jalr	628(ra) # 80000eca <release>
            return -1;
    80002c5e:	59fd                	li	s3,-1
    80002c60:	a0a1                	j	80002ca8 <wait+0x100>
    for (pp = proc; pp < &proc[NPROC]; pp++)
    80002c62:	24848493          	addi	s1,s1,584
    80002c66:	03348463          	beq	s1,s3,80002c8e <wait+0xe6>
      if (pp->parent == p)
    80002c6a:	7c9c                	ld	a5,56(s1)
    80002c6c:	ff279be3          	bne	a5,s2,80002c62 <wait+0xba>
        acquire(&pp->lock);
    80002c70:	8526                	mv	a0,s1
    80002c72:	ffffe097          	auipc	ra,0xffffe
    80002c76:	1a4080e7          	jalr	420(ra) # 80000e16 <acquire>
        if (pp->state == ZOMBIE)
    80002c7a:	4c9c                	lw	a5,24(s1)
    80002c7c:	f94781e3          	beq	a5,s4,80002bfe <wait+0x56>
        release(&pp->lock);
    80002c80:	8526                	mv	a0,s1
    80002c82:	ffffe097          	auipc	ra,0xffffe
    80002c86:	248080e7          	jalr	584(ra) # 80000eca <release>
        havekids = 1;
    80002c8a:	8756                	mv	a4,s5
    80002c8c:	bfd9                	j	80002c62 <wait+0xba>
    if (!havekids || p->killed)
    80002c8e:	c701                	beqz	a4,80002c96 <wait+0xee>
    80002c90:	02892783          	lw	a5,40(s2)
    80002c94:	c79d                	beqz	a5,80002cc2 <wait+0x11a>
      release(&wait_lock);
    80002c96:	0022f517          	auipc	a0,0x22f
    80002c9a:	23a50513          	addi	a0,a0,570 # 80231ed0 <wait_lock>
    80002c9e:	ffffe097          	auipc	ra,0xffffe
    80002ca2:	22c080e7          	jalr	556(ra) # 80000eca <release>
      return -1;
    80002ca6:	59fd                	li	s3,-1
}
    80002ca8:	854e                	mv	a0,s3
    80002caa:	60a6                	ld	ra,72(sp)
    80002cac:	6406                	ld	s0,64(sp)
    80002cae:	74e2                	ld	s1,56(sp)
    80002cb0:	7942                	ld	s2,48(sp)
    80002cb2:	79a2                	ld	s3,40(sp)
    80002cb4:	7a02                	ld	s4,32(sp)
    80002cb6:	6ae2                	ld	s5,24(sp)
    80002cb8:	6b42                	ld	s6,16(sp)
    80002cba:	6ba2                	ld	s7,8(sp)
    80002cbc:	6c02                	ld	s8,0(sp)
    80002cbe:	6161                	addi	sp,sp,80
    80002cc0:	8082                	ret
    sleep(p, &wait_lock); // DOC: wait-sleep
    80002cc2:	85e2                	mv	a1,s8
    80002cc4:	854a                	mv	a0,s2
    80002cc6:	00000097          	auipc	ra,0x0
    80002cca:	e7e080e7          	jalr	-386(ra) # 80002b44 <sleep>
    havekids = 0;
    80002cce:	b715                	j	80002bf2 <wait+0x4a>

0000000080002cd0 <waitx>:
{
    80002cd0:	711d                	addi	sp,sp,-96
    80002cd2:	ec86                	sd	ra,88(sp)
    80002cd4:	e8a2                	sd	s0,80(sp)
    80002cd6:	e4a6                	sd	s1,72(sp)
    80002cd8:	e0ca                	sd	s2,64(sp)
    80002cda:	fc4e                	sd	s3,56(sp)
    80002cdc:	f852                	sd	s4,48(sp)
    80002cde:	f456                	sd	s5,40(sp)
    80002ce0:	f05a                	sd	s6,32(sp)
    80002ce2:	ec5e                	sd	s7,24(sp)
    80002ce4:	e862                	sd	s8,16(sp)
    80002ce6:	e466                	sd	s9,8(sp)
    80002ce8:	e06a                	sd	s10,0(sp)
    80002cea:	1080                	addi	s0,sp,96
    80002cec:	8b2a                	mv	s6,a0
    80002cee:	8c2e                	mv	s8,a1
    80002cf0:	8bb2                	mv	s7,a2
  struct proc *p = myproc();
    80002cf2:	fffff097          	auipc	ra,0xfffff
    80002cf6:	110080e7          	jalr	272(ra) # 80001e02 <myproc>
    80002cfa:	892a                	mv	s2,a0
  acquire(&wait_lock);
    80002cfc:	0022f517          	auipc	a0,0x22f
    80002d00:	1d450513          	addi	a0,a0,468 # 80231ed0 <wait_lock>
    80002d04:	ffffe097          	auipc	ra,0xffffe
    80002d08:	112080e7          	jalr	274(ra) # 80000e16 <acquire>
    havekids = 0;
    80002d0c:	4c81                	li	s9,0
        if (np->state == ZOMBIE)
    80002d0e:	4a15                	li	s4,5
    for (np = proc; np < &proc[NPROC]; np++)
    80002d10:	00238997          	auipc	s3,0x238
